
ctarget:     file format elf64-x86-64


Disassembly of section .init:

0000000000400c60 <_init>:
  400c60:	48 83 ec 08          	sub    $0x8,%rsp
  400c64:	48 8b 05 8d 33 20 00 	mov    0x20338d(%rip),%rax        # 603ff8 <_DYNAMIC+0x1d0>
  400c6b:	48 85 c0             	test   %rax,%rax
  400c6e:	74 05                	je     400c75 <_init+0x15>
  400c70:	e8 2b 01 00 00       	callq  400da0 <__gmon_start__@plt>
  400c75:	48 83 c4 08          	add    $0x8,%rsp
  400c79:	c3                   	retq   

Disassembly of section .plt:

0000000000400c80 <strcasecmp@plt-0x10>:
  400c80:	ff 35 82 33 20 00    	pushq  0x203382(%rip)        # 604008 <_GLOBAL_OFFSET_TABLE_+0x8>
  400c86:	ff 25 84 33 20 00    	jmpq   *0x203384(%rip)        # 604010 <_GLOBAL_OFFSET_TABLE_+0x10>
  400c8c:	0f 1f 40 00          	nopl   0x0(%rax)

0000000000400c90 <strcasecmp@plt>:
  400c90:	ff 25 82 33 20 00    	jmpq   *0x203382(%rip)        # 604018 <_GLOBAL_OFFSET_TABLE_+0x18>
  400c96:	68 00 00 00 00       	pushq  $0x0
  400c9b:	e9 e0 ff ff ff       	jmpq   400c80 <_init+0x20>

0000000000400ca0 <__errno_location@plt>:
  400ca0:	ff 25 7a 33 20 00    	jmpq   *0x20337a(%rip)        # 604020 <_GLOBAL_OFFSET_TABLE_+0x20>
  400ca6:	68 01 00 00 00       	pushq  $0x1
  400cab:	e9 d0 ff ff ff       	jmpq   400c80 <_init+0x20>

0000000000400cb0 <srandom@plt>:
  400cb0:	ff 25 72 33 20 00    	jmpq   *0x203372(%rip)        # 604028 <_GLOBAL_OFFSET_TABLE_+0x28>
  400cb6:	68 02 00 00 00       	pushq  $0x2
  400cbb:	e9 c0 ff ff ff       	jmpq   400c80 <_init+0x20>

0000000000400cc0 <strncmp@plt>:
  400cc0:	ff 25 6a 33 20 00    	jmpq   *0x20336a(%rip)        # 604030 <_GLOBAL_OFFSET_TABLE_+0x30>
  400cc6:	68 03 00 00 00       	pushq  $0x3
  400ccb:	e9 b0 ff ff ff       	jmpq   400c80 <_init+0x20>

0000000000400cd0 <strcpy@plt>:
  400cd0:	ff 25 62 33 20 00    	jmpq   *0x203362(%rip)        # 604038 <_GLOBAL_OFFSET_TABLE_+0x38>
  400cd6:	68 04 00 00 00       	pushq  $0x4
  400cdb:	e9 a0 ff ff ff       	jmpq   400c80 <_init+0x20>

0000000000400ce0 <puts@plt>:
  400ce0:	ff 25 5a 33 20 00    	jmpq   *0x20335a(%rip)        # 604040 <_GLOBAL_OFFSET_TABLE_+0x40>
  400ce6:	68 05 00 00 00       	pushq  $0x5
  400ceb:	e9 90 ff ff ff       	jmpq   400c80 <_init+0x20>

0000000000400cf0 <write@plt>:
  400cf0:	ff 25 52 33 20 00    	jmpq   *0x203352(%rip)        # 604048 <_GLOBAL_OFFSET_TABLE_+0x48>
  400cf6:	68 06 00 00 00       	pushq  $0x6
  400cfb:	e9 80 ff ff ff       	jmpq   400c80 <_init+0x20>

0000000000400d00 <__stack_chk_fail@plt>:
  400d00:	ff 25 4a 33 20 00    	jmpq   *0x20334a(%rip)        # 604050 <_GLOBAL_OFFSET_TABLE_+0x50>
  400d06:	68 07 00 00 00       	pushq  $0x7
  400d0b:	e9 70 ff ff ff       	jmpq   400c80 <_init+0x20>

0000000000400d10 <mmap@plt>:
  400d10:	ff 25 42 33 20 00    	jmpq   *0x203342(%rip)        # 604058 <_GLOBAL_OFFSET_TABLE_+0x58>
  400d16:	68 08 00 00 00       	pushq  $0x8
  400d1b:	e9 60 ff ff ff       	jmpq   400c80 <_init+0x20>

0000000000400d20 <memset@plt>:
  400d20:	ff 25 3a 33 20 00    	jmpq   *0x20333a(%rip)        # 604060 <_GLOBAL_OFFSET_TABLE_+0x60>
  400d26:	68 09 00 00 00       	pushq  $0x9
  400d2b:	e9 50 ff ff ff       	jmpq   400c80 <_init+0x20>

0000000000400d30 <alarm@plt>:
  400d30:	ff 25 32 33 20 00    	jmpq   *0x203332(%rip)        # 604068 <_GLOBAL_OFFSET_TABLE_+0x68>
  400d36:	68 0a 00 00 00       	pushq  $0xa
  400d3b:	e9 40 ff ff ff       	jmpq   400c80 <_init+0x20>

0000000000400d40 <close@plt>:
  400d40:	ff 25 2a 33 20 00    	jmpq   *0x20332a(%rip)        # 604070 <_GLOBAL_OFFSET_TABLE_+0x70>
  400d46:	68 0b 00 00 00       	pushq  $0xb
  400d4b:	e9 30 ff ff ff       	jmpq   400c80 <_init+0x20>

0000000000400d50 <read@plt>:
  400d50:	ff 25 22 33 20 00    	jmpq   *0x203322(%rip)        # 604078 <_GLOBAL_OFFSET_TABLE_+0x78>
  400d56:	68 0c 00 00 00       	pushq  $0xc
  400d5b:	e9 20 ff ff ff       	jmpq   400c80 <_init+0x20>

0000000000400d60 <__libc_start_main@plt>:
  400d60:	ff 25 1a 33 20 00    	jmpq   *0x20331a(%rip)        # 604080 <_GLOBAL_OFFSET_TABLE_+0x80>
  400d66:	68 0d 00 00 00       	pushq  $0xd
  400d6b:	e9 10 ff ff ff       	jmpq   400c80 <_init+0x20>

0000000000400d70 <signal@plt>:
  400d70:	ff 25 12 33 20 00    	jmpq   *0x203312(%rip)        # 604088 <_GLOBAL_OFFSET_TABLE_+0x88>
  400d76:	68 0e 00 00 00       	pushq  $0xe
  400d7b:	e9 00 ff ff ff       	jmpq   400c80 <_init+0x20>

0000000000400d80 <gethostbyname@plt>:
  400d80:	ff 25 0a 33 20 00    	jmpq   *0x20330a(%rip)        # 604090 <_GLOBAL_OFFSET_TABLE_+0x90>
  400d86:	68 0f 00 00 00       	pushq  $0xf
  400d8b:	e9 f0 fe ff ff       	jmpq   400c80 <_init+0x20>

0000000000400d90 <__memmove_chk@plt>:
  400d90:	ff 25 02 33 20 00    	jmpq   *0x203302(%rip)        # 604098 <_GLOBAL_OFFSET_TABLE_+0x98>
  400d96:	68 10 00 00 00       	pushq  $0x10
  400d9b:	e9 e0 fe ff ff       	jmpq   400c80 <_init+0x20>

0000000000400da0 <__gmon_start__@plt>:
  400da0:	ff 25 fa 32 20 00    	jmpq   *0x2032fa(%rip)        # 6040a0 <_GLOBAL_OFFSET_TABLE_+0xa0>
  400da6:	68 11 00 00 00       	pushq  $0x11
  400dab:	e9 d0 fe ff ff       	jmpq   400c80 <_init+0x20>

0000000000400db0 <strtol@plt>:
  400db0:	ff 25 f2 32 20 00    	jmpq   *0x2032f2(%rip)        # 6040a8 <_GLOBAL_OFFSET_TABLE_+0xa8>
  400db6:	68 12 00 00 00       	pushq  $0x12
  400dbb:	e9 c0 fe ff ff       	jmpq   400c80 <_init+0x20>

0000000000400dc0 <memcpy@plt>:
  400dc0:	ff 25 ea 32 20 00    	jmpq   *0x2032ea(%rip)        # 6040b0 <_GLOBAL_OFFSET_TABLE_+0xb0>
  400dc6:	68 13 00 00 00       	pushq  $0x13
  400dcb:	e9 b0 fe ff ff       	jmpq   400c80 <_init+0x20>

0000000000400dd0 <time@plt>:
  400dd0:	ff 25 e2 32 20 00    	jmpq   *0x2032e2(%rip)        # 6040b8 <_GLOBAL_OFFSET_TABLE_+0xb8>
  400dd6:	68 14 00 00 00       	pushq  $0x14
  400ddb:	e9 a0 fe ff ff       	jmpq   400c80 <_init+0x20>

0000000000400de0 <random@plt>:
  400de0:	ff 25 da 32 20 00    	jmpq   *0x2032da(%rip)        # 6040c0 <_GLOBAL_OFFSET_TABLE_+0xc0>
  400de6:	68 15 00 00 00       	pushq  $0x15
  400deb:	e9 90 fe ff ff       	jmpq   400c80 <_init+0x20>

0000000000400df0 <_IO_getc@plt>:
  400df0:	ff 25 d2 32 20 00    	jmpq   *0x2032d2(%rip)        # 6040c8 <_GLOBAL_OFFSET_TABLE_+0xc8>
  400df6:	68 16 00 00 00       	pushq  $0x16
  400dfb:	e9 80 fe ff ff       	jmpq   400c80 <_init+0x20>

0000000000400e00 <__isoc99_sscanf@plt>:
  400e00:	ff 25 ca 32 20 00    	jmpq   *0x2032ca(%rip)        # 6040d0 <_GLOBAL_OFFSET_TABLE_+0xd0>
  400e06:	68 17 00 00 00       	pushq  $0x17
  400e0b:	e9 70 fe ff ff       	jmpq   400c80 <_init+0x20>

0000000000400e10 <munmap@plt>:
  400e10:	ff 25 c2 32 20 00    	jmpq   *0x2032c2(%rip)        # 6040d8 <_GLOBAL_OFFSET_TABLE_+0xd8>
  400e16:	68 18 00 00 00       	pushq  $0x18
  400e1b:	e9 60 fe ff ff       	jmpq   400c80 <_init+0x20>

0000000000400e20 <__printf_chk@plt>:
  400e20:	ff 25 ba 32 20 00    	jmpq   *0x2032ba(%rip)        # 6040e0 <_GLOBAL_OFFSET_TABLE_+0xe0>
  400e26:	68 19 00 00 00       	pushq  $0x19
  400e2b:	e9 50 fe ff ff       	jmpq   400c80 <_init+0x20>

0000000000400e30 <fopen@plt>:
  400e30:	ff 25 b2 32 20 00    	jmpq   *0x2032b2(%rip)        # 6040e8 <_GLOBAL_OFFSET_TABLE_+0xe8>
  400e36:	68 1a 00 00 00       	pushq  $0x1a
  400e3b:	e9 40 fe ff ff       	jmpq   400c80 <_init+0x20>

0000000000400e40 <getopt@plt>:
  400e40:	ff 25 aa 32 20 00    	jmpq   *0x2032aa(%rip)        # 6040f0 <_GLOBAL_OFFSET_TABLE_+0xf0>
  400e46:	68 1b 00 00 00       	pushq  $0x1b
  400e4b:	e9 30 fe ff ff       	jmpq   400c80 <_init+0x20>

0000000000400e50 <strtoul@plt>:
  400e50:	ff 25 a2 32 20 00    	jmpq   *0x2032a2(%rip)        # 6040f8 <_GLOBAL_OFFSET_TABLE_+0xf8>
  400e56:	68 1c 00 00 00       	pushq  $0x1c
  400e5b:	e9 20 fe ff ff       	jmpq   400c80 <_init+0x20>

0000000000400e60 <gethostname@plt>:
  400e60:	ff 25 9a 32 20 00    	jmpq   *0x20329a(%rip)        # 604100 <_GLOBAL_OFFSET_TABLE_+0x100>
  400e66:	68 1d 00 00 00       	pushq  $0x1d
  400e6b:	e9 10 fe ff ff       	jmpq   400c80 <_init+0x20>

0000000000400e70 <exit@plt>:
  400e70:	ff 25 92 32 20 00    	jmpq   *0x203292(%rip)        # 604108 <_GLOBAL_OFFSET_TABLE_+0x108>
  400e76:	68 1e 00 00 00       	pushq  $0x1e
  400e7b:	e9 00 fe ff ff       	jmpq   400c80 <_init+0x20>

0000000000400e80 <connect@plt>:
  400e80:	ff 25 8a 32 20 00    	jmpq   *0x20328a(%rip)        # 604110 <_GLOBAL_OFFSET_TABLE_+0x110>
  400e86:	68 1f 00 00 00       	pushq  $0x1f
  400e8b:	e9 f0 fd ff ff       	jmpq   400c80 <_init+0x20>

0000000000400e90 <__fprintf_chk@plt>:
  400e90:	ff 25 82 32 20 00    	jmpq   *0x203282(%rip)        # 604118 <_GLOBAL_OFFSET_TABLE_+0x118>
  400e96:	68 20 00 00 00       	pushq  $0x20
  400e9b:	e9 e0 fd ff ff       	jmpq   400c80 <_init+0x20>

0000000000400ea0 <__sprintf_chk@plt>:
  400ea0:	ff 25 7a 32 20 00    	jmpq   *0x20327a(%rip)        # 604120 <_GLOBAL_OFFSET_TABLE_+0x120>
  400ea6:	68 21 00 00 00       	pushq  $0x21
  400eab:	e9 d0 fd ff ff       	jmpq   400c80 <_init+0x20>

0000000000400eb0 <socket@plt>:
  400eb0:	ff 25 72 32 20 00    	jmpq   *0x203272(%rip)        # 604128 <_GLOBAL_OFFSET_TABLE_+0x128>
  400eb6:	68 22 00 00 00       	pushq  $0x22
  400ebb:	e9 c0 fd ff ff       	jmpq   400c80 <_init+0x20>

Disassembly of section .text:

0000000000400ec0 <_start>:
  400ec0:	31 ed                	xor    %ebp,%ebp
  400ec2:	49 89 d1             	mov    %rdx,%r9
  400ec5:	5e                   	pop    %rsi
  400ec6:	48 89 e2             	mov    %rsp,%rdx
  400ec9:	48 83 e4 f0          	and    $0xfffffffffffffff0,%rsp
  400ecd:	50                   	push   %rax
  400ece:	54                   	push   %rsp
  400ecf:	49 c7 c0 b0 2e 40 00 	mov    $0x402eb0,%r8
  400ed6:	48 c7 c1 40 2e 40 00 	mov    $0x402e40,%rcx
  400edd:	48 c7 c7 bf 11 40 00 	mov    $0x4011bf,%rdi
  400ee4:	e8 77 fe ff ff       	callq  400d60 <__libc_start_main@plt>
  400ee9:	f4                   	hlt    
  400eea:	66 0f 1f 44 00 00    	nopw   0x0(%rax,%rax,1)

0000000000400ef0 <deregister_tm_clones>:
  400ef0:	b8 b7 44 60 00       	mov    $0x6044b7,%eax
  400ef5:	55                   	push   %rbp
  400ef6:	48 2d b0 44 60 00    	sub    $0x6044b0,%rax
  400efc:	48 83 f8 0e          	cmp    $0xe,%rax
  400f00:	48 89 e5             	mov    %rsp,%rbp
  400f03:	77 02                	ja     400f07 <deregister_tm_clones+0x17>
  400f05:	5d                   	pop    %rbp
  400f06:	c3                   	retq   
  400f07:	b8 00 00 00 00       	mov    $0x0,%eax
  400f0c:	48 85 c0             	test   %rax,%rax
  400f0f:	74 f4                	je     400f05 <deregister_tm_clones+0x15>
  400f11:	5d                   	pop    %rbp
  400f12:	bf b0 44 60 00       	mov    $0x6044b0,%edi
  400f17:	ff e0                	jmpq   *%rax
  400f19:	0f 1f 80 00 00 00 00 	nopl   0x0(%rax)

0000000000400f20 <register_tm_clones>:
  400f20:	b8 b0 44 60 00       	mov    $0x6044b0,%eax
  400f25:	55                   	push   %rbp
  400f26:	48 2d b0 44 60 00    	sub    $0x6044b0,%rax
  400f2c:	48 c1 f8 03          	sar    $0x3,%rax
  400f30:	48 89 e5             	mov    %rsp,%rbp
  400f33:	48 89 c2             	mov    %rax,%rdx
  400f36:	48 c1 ea 3f          	shr    $0x3f,%rdx
  400f3a:	48 01 d0             	add    %rdx,%rax
  400f3d:	48 d1 f8             	sar    %rax
  400f40:	75 02                	jne    400f44 <register_tm_clones+0x24>
  400f42:	5d                   	pop    %rbp
  400f43:	c3                   	retq   
  400f44:	ba 00 00 00 00       	mov    $0x0,%edx
  400f49:	48 85 d2             	test   %rdx,%rdx
  400f4c:	74 f4                	je     400f42 <register_tm_clones+0x22>
  400f4e:	5d                   	pop    %rbp
  400f4f:	48 89 c6             	mov    %rax,%rsi
  400f52:	bf b0 44 60 00       	mov    $0x6044b0,%edi
  400f57:	ff e2                	jmpq   *%rdx
  400f59:	0f 1f 80 00 00 00 00 	nopl   0x0(%rax)

0000000000400f60 <__do_global_dtors_aux>:
  400f60:	80 3d 89 35 20 00 00 	cmpb   $0x0,0x203589(%rip)        # 6044f0 <completed.6973>
  400f67:	75 11                	jne    400f7a <__do_global_dtors_aux+0x1a>
  400f69:	55                   	push   %rbp
  400f6a:	48 89 e5             	mov    %rsp,%rbp
  400f6d:	e8 7e ff ff ff       	callq  400ef0 <deregister_tm_clones>
  400f72:	5d                   	pop    %rbp
  400f73:	c6 05 76 35 20 00 01 	movb   $0x1,0x203576(%rip)        # 6044f0 <completed.6973>
  400f7a:	f3 c3                	repz retq 
  400f7c:	0f 1f 40 00          	nopl   0x0(%rax)

0000000000400f80 <frame_dummy>:
  400f80:	48 83 3d 98 2e 20 00 	cmpq   $0x0,0x202e98(%rip)        # 603e20 <__JCR_END__>
  400f87:	00 
  400f88:	74 1e                	je     400fa8 <frame_dummy+0x28>
  400f8a:	b8 00 00 00 00       	mov    $0x0,%eax
  400f8f:	48 85 c0             	test   %rax,%rax
  400f92:	74 14                	je     400fa8 <frame_dummy+0x28>
  400f94:	55                   	push   %rbp
  400f95:	bf 20 3e 60 00       	mov    $0x603e20,%edi
  400f9a:	48 89 e5             	mov    %rsp,%rbp
  400f9d:	ff d0                	callq  *%rax
  400f9f:	5d                   	pop    %rbp
  400fa0:	e9 7b ff ff ff       	jmpq   400f20 <register_tm_clones>
  400fa5:	0f 1f 00             	nopl   (%rax)
  400fa8:	e9 73 ff ff ff       	jmpq   400f20 <register_tm_clones>
  400fad:	0f 1f 00             	nopl   (%rax)

0000000000400fb0 <usage>:
  400fb0:	48 83 ec 08          	sub    $0x8,%rsp
  400fb4:	48 89 fa             	mov    %rdi,%rdx
  400fb7:	83 3d 6a 35 20 00 00 	cmpl   $0x0,0x20356a(%rip)        # 604528 <is_checker>
  400fbe:	74 3e                	je     400ffe <usage+0x4e>
  400fc0:	be c8 2e 40 00       	mov    $0x402ec8,%esi
  400fc5:	bf 01 00 00 00       	mov    $0x1,%edi
  400fca:	b8 00 00 00 00       	mov    $0x0,%eax
  400fcf:	e8 4c fe ff ff       	callq  400e20 <__printf_chk@plt>
  400fd4:	bf 00 2f 40 00       	mov    $0x402f00,%edi
  400fd9:	e8 02 fd ff ff       	callq  400ce0 <puts@plt>
  400fde:	bf 78 30 40 00       	mov    $0x403078,%edi
  400fe3:	e8 f8 fc ff ff       	callq  400ce0 <puts@plt>
  400fe8:	bf 28 2f 40 00       	mov    $0x402f28,%edi
  400fed:	e8 ee fc ff ff       	callq  400ce0 <puts@plt>
  400ff2:	bf 92 30 40 00       	mov    $0x403092,%edi
  400ff7:	e8 e4 fc ff ff       	callq  400ce0 <puts@plt>
  400ffc:	eb 32                	jmp    401030 <usage+0x80>
  400ffe:	be ae 30 40 00       	mov    $0x4030ae,%esi
  401003:	bf 01 00 00 00       	mov    $0x1,%edi
  401008:	b8 00 00 00 00       	mov    $0x0,%eax
  40100d:	e8 0e fe ff ff       	callq  400e20 <__printf_chk@plt>
  401012:	bf 50 2f 40 00       	mov    $0x402f50,%edi
  401017:	e8 c4 fc ff ff       	callq  400ce0 <puts@plt>
  40101c:	bf 78 2f 40 00       	mov    $0x402f78,%edi
  401021:	e8 ba fc ff ff       	callq  400ce0 <puts@plt>
  401026:	bf cc 30 40 00       	mov    $0x4030cc,%edi
  40102b:	e8 b0 fc ff ff       	callq  400ce0 <puts@plt>
  401030:	bf 00 00 00 00       	mov    $0x0,%edi
  401035:	e8 36 fe ff ff       	callq  400e70 <exit@plt>

000000000040103a <initialize_target>:
  40103a:	55                   	push   %rbp
  40103b:	53                   	push   %rbx
  40103c:	48 81 ec 18 21 00 00 	sub    $0x2118,%rsp
  401043:	89 f5                	mov    %esi,%ebp
  401045:	64 48 8b 04 25 28 00 	mov    %fs:0x28,%rax
  40104c:	00 00 
  40104e:	48 89 84 24 08 21 00 	mov    %rax,0x2108(%rsp)
  401055:	00 
  401056:	31 c0                	xor    %eax,%eax
  401058:	89 3d ba 34 20 00    	mov    %edi,0x2034ba(%rip)        # 604518 <check_level>
  40105e:	8b 3d 04 31 20 00    	mov    0x203104(%rip),%edi        # 604168 <target_id>
  401064:	e8 aa 1d 00 00       	callq  402e13 <gencookie>
  401069:	89 05 b5 34 20 00    	mov    %eax,0x2034b5(%rip)        # 604524 <cookie>
  40106f:	89 c7                	mov    %eax,%edi
  401071:	e8 9d 1d 00 00       	callq  402e13 <gencookie>
  401076:	89 05 a4 34 20 00    	mov    %eax,0x2034a4(%rip)        # 604520 <authkey>
  40107c:	8b 05 e6 30 20 00    	mov    0x2030e6(%rip),%eax        # 604168 <target_id>
  401082:	8d 78 01             	lea    0x1(%rax),%edi
  401085:	e8 26 fc ff ff       	callq  400cb0 <srandom@plt>
  40108a:	e8 51 fd ff ff       	callq  400de0 <random@plt>
  40108f:	89 c7                	mov    %eax,%edi
  401091:	e8 03 03 00 00       	callq  401399 <scramble>
  401096:	89 c3                	mov    %eax,%ebx
  401098:	85 ed                	test   %ebp,%ebp
  40109a:	74 18                	je     4010b4 <initialize_target+0x7a>
  40109c:	bf 00 00 00 00       	mov    $0x0,%edi
  4010a1:	e8 2a fd ff ff       	callq  400dd0 <time@plt>
  4010a6:	89 c7                	mov    %eax,%edi
  4010a8:	e8 03 fc ff ff       	callq  400cb0 <srandom@plt>
  4010ad:	e8 2e fd ff ff       	callq  400de0 <random@plt>
  4010b2:	eb 05                	jmp    4010b9 <initialize_target+0x7f>
  4010b4:	b8 00 00 00 00       	mov    $0x0,%eax
  4010b9:	01 c3                	add    %eax,%ebx
  4010bb:	0f b7 db             	movzwl %bx,%ebx
  4010be:	8d 04 dd 00 01 00 00 	lea    0x100(,%rbx,8),%eax
  4010c5:	89 c0                	mov    %eax,%eax
  4010c7:	48 89 05 d2 33 20 00 	mov    %rax,0x2033d2(%rip)        # 6044a0 <buf_offset>
  4010ce:	c6 05 73 40 20 00 63 	movb   $0x63,0x204073(%rip)        # 605148 <target_prefix>
  4010d5:	83 3d cc 33 20 00 00 	cmpl   $0x0,0x2033cc(%rip)        # 6044a8 <notify>
  4010dc:	0f 84 bb 00 00 00    	je     40119d <initialize_target+0x163>
  4010e2:	83 3d 3f 34 20 00 00 	cmpl   $0x0,0x20343f(%rip)        # 604528 <is_checker>
  4010e9:	0f 85 ae 00 00 00    	jne    40119d <initialize_target+0x163>
  4010ef:	be 00 01 00 00       	mov    $0x100,%esi
  4010f4:	48 89 e7             	mov    %rsp,%rdi
  4010f7:	e8 64 fd ff ff       	callq  400e60 <gethostname@plt>
  4010fc:	85 c0                	test   %eax,%eax
  4010fe:	74 25                	je     401125 <initialize_target+0xeb>
  401100:	bf a8 2f 40 00       	mov    $0x402fa8,%edi
  401105:	e8 d6 fb ff ff       	callq  400ce0 <puts@plt>
  40110a:	bf 08 00 00 00       	mov    $0x8,%edi
  40110f:	e8 5c fd ff ff       	callq  400e70 <exit@plt>
  401114:	48 89 e6             	mov    %rsp,%rsi
  401117:	e8 74 fb ff ff       	callq  400c90 <strcasecmp@plt>
  40111c:	85 c0                	test   %eax,%eax
  40111e:	74 21                	je     401141 <initialize_target+0x107>
  401120:	83 c3 01             	add    $0x1,%ebx
  401123:	eb 05                	jmp    40112a <initialize_target+0xf0>
  401125:	bb 00 00 00 00       	mov    $0x0,%ebx
  40112a:	48 63 c3             	movslq %ebx,%rax
  40112d:	48 8b 3c c5 80 41 60 	mov    0x604180(,%rax,8),%rdi
  401134:	00 
  401135:	48 85 ff             	test   %rdi,%rdi
  401138:	75 da                	jne    401114 <initialize_target+0xda>
  40113a:	b8 00 00 00 00       	mov    $0x0,%eax
  40113f:	eb 05                	jmp    401146 <initialize_target+0x10c>
  401141:	b8 01 00 00 00       	mov    $0x1,%eax
  401146:	85 c0                	test   %eax,%eax
  401148:	75 1c                	jne    401166 <initialize_target+0x12c>
  40114a:	48 89 e2             	mov    %rsp,%rdx
  40114d:	be e0 2f 40 00       	mov    $0x402fe0,%esi
  401152:	bf 01 00 00 00       	mov    $0x1,%edi
  401157:	e8 c4 fc ff ff       	callq  400e20 <__printf_chk@plt>
  40115c:	bf 08 00 00 00       	mov    $0x8,%edi
  401161:	e8 0a fd ff ff       	callq  400e70 <exit@plt>
  401166:	48 8d bc 24 00 01 00 	lea    0x100(%rsp),%rdi
  40116d:	00 
  40116e:	e8 08 1a 00 00       	callq  402b7b <init_driver>
  401173:	85 c0                	test   %eax,%eax
  401175:	79 26                	jns    40119d <initialize_target+0x163>
  401177:	48 8d 94 24 00 01 00 	lea    0x100(%rsp),%rdx
  40117e:	00 
  40117f:	be 20 30 40 00       	mov    $0x403020,%esi
  401184:	bf 01 00 00 00       	mov    $0x1,%edi
  401189:	b8 00 00 00 00       	mov    $0x0,%eax
  40118e:	e8 8d fc ff ff       	callq  400e20 <__printf_chk@plt>
  401193:	bf 08 00 00 00       	mov    $0x8,%edi
  401198:	e8 d3 fc ff ff       	callq  400e70 <exit@plt>
  40119d:	48 8b 84 24 08 21 00 	mov    0x2108(%rsp),%rax
  4011a4:	00 
  4011a5:	64 48 33 04 25 28 00 	xor    %fs:0x28,%rax
  4011ac:	00 00 
  4011ae:	74 05                	je     4011b5 <initialize_target+0x17b>
  4011b0:	e8 4b fb ff ff       	callq  400d00 <__stack_chk_fail@plt>
  4011b5:	48 81 c4 18 21 00 00 	add    $0x2118,%rsp
  4011bc:	5b                   	pop    %rbx
  4011bd:	5d                   	pop    %rbp
  4011be:	c3                   	retq   

00000000004011bf <main>:
  4011bf:	41 56                	push   %r14
  4011c1:	41 55                	push   %r13
  4011c3:	41 54                	push   %r12
  4011c5:	55                   	push   %rbp
  4011c6:	53                   	push   %rbx
  4011c7:	41 89 fc             	mov    %edi,%r12d
  4011ca:	48 89 f3             	mov    %rsi,%rbx
  4011cd:	be ee 1e 40 00       	mov    $0x401eee,%esi
  4011d2:	bf 0b 00 00 00       	mov    $0xb,%edi
  4011d7:	e8 94 fb ff ff       	callq  400d70 <signal@plt>
  4011dc:	be a0 1e 40 00       	mov    $0x401ea0,%esi
  4011e1:	bf 07 00 00 00       	mov    $0x7,%edi
  4011e6:	e8 85 fb ff ff       	callq  400d70 <signal@plt>
  4011eb:	be 3c 1f 40 00       	mov    $0x401f3c,%esi
  4011f0:	bf 04 00 00 00       	mov    $0x4,%edi
  4011f5:	e8 76 fb ff ff       	callq  400d70 <signal@plt>
  4011fa:	83 3d 27 33 20 00 00 	cmpl   $0x0,0x203327(%rip)        # 604528 <is_checker>
  401201:	74 20                	je     401223 <main+0x64>
  401203:	be 8a 1f 40 00       	mov    $0x401f8a,%esi
  401208:	bf 0e 00 00 00       	mov    $0xe,%edi
  40120d:	e8 5e fb ff ff       	callq  400d70 <signal@plt>
  401212:	bf 05 00 00 00       	mov    $0x5,%edi
  401217:	e8 14 fb ff ff       	callq  400d30 <alarm@plt>
  40121c:	bd ea 30 40 00       	mov    $0x4030ea,%ebp
  401221:	eb 05                	jmp    401228 <main+0x69>
  401223:	bd e5 30 40 00       	mov    $0x4030e5,%ebp
  401228:	48 8b 05 91 32 20 00 	mov    0x203291(%rip),%rax        # 6044c0 <stdin@@GLIBC_2.2.5>
  40122f:	48 89 05 da 32 20 00 	mov    %rax,0x2032da(%rip)        # 604510 <infile>
  401236:	41 bd 00 00 00 00    	mov    $0x0,%r13d
  40123c:	41 be 00 00 00 00    	mov    $0x0,%r14d
  401242:	e9 c6 00 00 00       	jmpq   40130d <main+0x14e>
  401247:	83 e8 61             	sub    $0x61,%eax
  40124a:	3c 10                	cmp    $0x10,%al
  40124c:	0f 87 9c 00 00 00    	ja     4012ee <main+0x12f>
  401252:	0f b6 c0             	movzbl %al,%eax
  401255:	ff 24 c5 30 31 40 00 	jmpq   *0x403130(,%rax,8)
  40125c:	48 8b 3b             	mov    (%rbx),%rdi
  40125f:	e8 4c fd ff ff       	callq  400fb0 <usage>
  401264:	be 9d 33 40 00       	mov    $0x40339d,%esi
  401269:	48 8b 3d 70 32 20 00 	mov    0x203270(%rip),%rdi        # 6044e0 <optarg@@GLIBC_2.2.5>
  401270:	e8 bb fb ff ff       	callq  400e30 <fopen@plt>
  401275:	48 89 05 94 32 20 00 	mov    %rax,0x203294(%rip)        # 604510 <infile>
  40127c:	48 85 c0             	test   %rax,%rax
  40127f:	0f 85 88 00 00 00    	jne    40130d <main+0x14e>
  401285:	48 8b 0d 54 32 20 00 	mov    0x203254(%rip),%rcx        # 6044e0 <optarg@@GLIBC_2.2.5>
  40128c:	ba f2 30 40 00       	mov    $0x4030f2,%edx
  401291:	be 01 00 00 00       	mov    $0x1,%esi
  401296:	48 8b 3d 4b 32 20 00 	mov    0x20324b(%rip),%rdi        # 6044e8 <stderr@@GLIBC_2.2.5>
  40129d:	e8 ee fb ff ff       	callq  400e90 <__fprintf_chk@plt>
  4012a2:	b8 01 00 00 00       	mov    $0x1,%eax
  4012a7:	e9 e4 00 00 00       	jmpq   401390 <main+0x1d1>
  4012ac:	ba 10 00 00 00       	mov    $0x10,%edx
  4012b1:	be 00 00 00 00       	mov    $0x0,%esi
  4012b6:	48 8b 3d 23 32 20 00 	mov    0x203223(%rip),%rdi        # 6044e0 <optarg@@GLIBC_2.2.5>
  4012bd:	e8 8e fb ff ff       	callq  400e50 <strtoul@plt>
  4012c2:	41 89 c6             	mov    %eax,%r14d
  4012c5:	eb 46                	jmp    40130d <main+0x14e>
  4012c7:	ba 0a 00 00 00       	mov    $0xa,%edx
  4012cc:	be 00 00 00 00       	mov    $0x0,%esi
  4012d1:	48 8b 3d 08 32 20 00 	mov    0x203208(%rip),%rdi        # 6044e0 <optarg@@GLIBC_2.2.5>
  4012d8:	e8 d3 fa ff ff       	callq  400db0 <strtol@plt>
  4012dd:	41 89 c5             	mov    %eax,%r13d
  4012e0:	eb 2b                	jmp    40130d <main+0x14e>
  4012e2:	c7 05 bc 31 20 00 00 	movl   $0x0,0x2031bc(%rip)        # 6044a8 <notify>
  4012e9:	00 00 00 
  4012ec:	eb 1f                	jmp    40130d <main+0x14e>
  4012ee:	0f be d2             	movsbl %dl,%edx
  4012f1:	be 0f 31 40 00       	mov    $0x40310f,%esi
  4012f6:	bf 01 00 00 00       	mov    $0x1,%edi
  4012fb:	b8 00 00 00 00       	mov    $0x0,%eax
  401300:	e8 1b fb ff ff       	callq  400e20 <__printf_chk@plt>
  401305:	48 8b 3b             	mov    (%rbx),%rdi
  401308:	e8 a3 fc ff ff       	callq  400fb0 <usage>
  40130d:	48 89 ea             	mov    %rbp,%rdx
  401310:	48 89 de             	mov    %rbx,%rsi
  401313:	44 89 e7             	mov    %r12d,%edi
  401316:	e8 25 fb ff ff       	callq  400e40 <getopt@plt>
  40131b:	89 c2                	mov    %eax,%edx
  40131d:	3c ff                	cmp    $0xff,%al
  40131f:	0f 85 22 ff ff ff    	jne    401247 <main+0x88>
  401325:	be 00 00 00 00       	mov    $0x0,%esi
  40132a:	44 89 ef             	mov    %r13d,%edi
  40132d:	e8 08 fd ff ff       	callq  40103a <initialize_target>
  401332:	83 3d ef 31 20 00 00 	cmpl   $0x0,0x2031ef(%rip)        # 604528 <is_checker>
  401339:	74 2a                	je     401365 <main+0x1a6>
  40133b:	44 3b 35 de 31 20 00 	cmp    0x2031de(%rip),%r14d        # 604520 <authkey>
  401342:	74 21                	je     401365 <main+0x1a6>
  401344:	44 89 f2             	mov    %r14d,%edx
  401347:	be 48 30 40 00       	mov    $0x403048,%esi
  40134c:	bf 01 00 00 00       	mov    $0x1,%edi
  401351:	b8 00 00 00 00       	mov    $0x0,%eax
  401356:	e8 c5 fa ff ff       	callq  400e20 <__printf_chk@plt>
  40135b:	b8 00 00 00 00       	mov    $0x0,%eax
  401360:	e8 c6 07 00 00       	callq  401b2b <check_fail>
  401365:	8b 15 b9 31 20 00    	mov    0x2031b9(%rip),%edx        # 604524 <cookie>
  40136b:	be 22 31 40 00       	mov    $0x403122,%esi
  401370:	bf 01 00 00 00       	mov    $0x1,%edi
  401375:	b8 00 00 00 00       	mov    $0x0,%eax
  40137a:	e8 a1 fa ff ff       	callq  400e20 <__printf_chk@plt>
  40137f:	48 8b 3d 1a 31 20 00 	mov    0x20311a(%rip),%rdi        # 6044a0 <buf_offset>
  401386:	e8 ff 0c 00 00       	callq  40208a <stable_launch>
  40138b:	b8 00 00 00 00       	mov    $0x0,%eax
  401390:	5b                   	pop    %rbx
  401391:	5d                   	pop    %rbp
  401392:	41 5c                	pop    %r12
  401394:	41 5d                	pop    %r13
  401396:	41 5e                	pop    %r14
  401398:	c3                   	retq   

0000000000401399 <scramble>:
  401399:	b8 00 00 00 00       	mov    $0x0,%eax
  40139e:	eb 11                	jmp    4013b1 <scramble+0x18>
  4013a0:	69 c8 b0 52 00 00    	imul   $0x52b0,%eax,%ecx
  4013a6:	01 f9                	add    %edi,%ecx
  4013a8:	89 c2                	mov    %eax,%edx
  4013aa:	89 4c 94 c8          	mov    %ecx,-0x38(%rsp,%rdx,4)
  4013ae:	83 c0 01             	add    $0x1,%eax
  4013b1:	83 f8 09             	cmp    $0x9,%eax
  4013b4:	76 ea                	jbe    4013a0 <scramble+0x7>
  4013b6:	8b 44 24 cc          	mov    -0x34(%rsp),%eax
  4013ba:	89 c2                	mov    %eax,%edx
  4013bc:	c1 e2 04             	shl    $0x4,%edx
  4013bf:	29 c2                	sub    %eax,%edx
  4013c1:	89 54 24 cc          	mov    %edx,-0x34(%rsp)
  4013c5:	8b 44 24 d0          	mov    -0x30(%rsp),%eax
  4013c9:	69 c0 1d 03 00 00    	imul   $0x31d,%eax,%eax
  4013cf:	89 44 24 d0          	mov    %eax,-0x30(%rsp)
  4013d3:	8b 44 24 e4          	mov    -0x1c(%rsp),%eax
  4013d7:	69 c0 06 43 00 00    	imul   $0x4306,%eax,%eax
  4013dd:	89 44 24 e4          	mov    %eax,-0x1c(%rsp)
  4013e1:	8b 44 24 dc          	mov    -0x24(%rsp),%eax
  4013e5:	69 c0 59 18 00 00    	imul   $0x1859,%eax,%eax
  4013eb:	89 44 24 dc          	mov    %eax,-0x24(%rsp)
  4013ef:	8b 44 24 d4          	mov    -0x2c(%rsp),%eax
  4013f3:	69 c0 d0 2e 00 00    	imul   $0x2ed0,%eax,%eax
  4013f9:	89 44 24 d4          	mov    %eax,-0x2c(%rsp)
  4013fd:	8b 44 24 cc          	mov    -0x34(%rsp),%eax
  401401:	69 c0 35 87 00 00    	imul   $0x8735,%eax,%eax
  401407:	89 44 24 cc          	mov    %eax,-0x34(%rsp)
  40140b:	8b 44 24 d0          	mov    -0x30(%rsp),%eax
  40140f:	69 c0 59 27 00 00    	imul   $0x2759,%eax,%eax
  401415:	89 44 24 d0          	mov    %eax,-0x30(%rsp)
  401419:	8b 44 24 e4          	mov    -0x1c(%rsp),%eax
  40141d:	69 c0 dc 66 00 00    	imul   $0x66dc,%eax,%eax
  401423:	89 44 24 e4          	mov    %eax,-0x1c(%rsp)
  401427:	8b 44 24 ec          	mov    -0x14(%rsp),%eax
  40142b:	69 c0 4e d8 00 00    	imul   $0xd84e,%eax,%eax
  401431:	89 44 24 ec          	mov    %eax,-0x14(%rsp)
  401435:	8b 44 24 e0          	mov    -0x20(%rsp),%eax
  401439:	69 c0 12 eb 00 00    	imul   $0xeb12,%eax,%eax
  40143f:	89 44 24 e0          	mov    %eax,-0x20(%rsp)
  401443:	8b 44 24 d8          	mov    -0x28(%rsp),%eax
  401447:	69 c0 35 13 00 00    	imul   $0x1335,%eax,%eax
  40144d:	89 44 24 d8          	mov    %eax,-0x28(%rsp)
  401451:	8b 44 24 d8          	mov    -0x28(%rsp),%eax
  401455:	69 c0 66 a2 00 00    	imul   $0xa266,%eax,%eax
  40145b:	89 44 24 d8          	mov    %eax,-0x28(%rsp)
  40145f:	8b 44 24 c8          	mov    -0x38(%rsp),%eax
  401463:	69 c0 40 66 00 00    	imul   $0x6640,%eax,%eax
  401469:	89 44 24 c8          	mov    %eax,-0x38(%rsp)
  40146d:	8b 44 24 c8          	mov    -0x38(%rsp),%eax
  401471:	69 c0 94 c9 00 00    	imul   $0xc994,%eax,%eax
  401477:	89 44 24 c8          	mov    %eax,-0x38(%rsp)
  40147b:	8b 44 24 cc          	mov    -0x34(%rsp),%eax
  40147f:	69 c0 0e cd 00 00    	imul   $0xcd0e,%eax,%eax
  401485:	89 44 24 cc          	mov    %eax,-0x34(%rsp)
  401489:	8b 44 24 d4          	mov    -0x2c(%rsp),%eax
  40148d:	69 c0 fd 18 00 00    	imul   $0x18fd,%eax,%eax
  401493:	89 44 24 d4          	mov    %eax,-0x2c(%rsp)
  401497:	8b 44 24 d0          	mov    -0x30(%rsp),%eax
  40149b:	69 c0 c0 3d 00 00    	imul   $0x3dc0,%eax,%eax
  4014a1:	89 44 24 d0          	mov    %eax,-0x30(%rsp)
  4014a5:	8b 44 24 d8          	mov    -0x28(%rsp),%eax
  4014a9:	69 c0 3d c4 00 00    	imul   $0xc43d,%eax,%eax
  4014af:	89 44 24 d8          	mov    %eax,-0x28(%rsp)
  4014b3:	8b 44 24 cc          	mov    -0x34(%rsp),%eax
  4014b7:	69 c0 0f 4e 00 00    	imul   $0x4e0f,%eax,%eax
  4014bd:	89 44 24 cc          	mov    %eax,-0x34(%rsp)
  4014c1:	8b 44 24 e0          	mov    -0x20(%rsp),%eax
  4014c5:	69 c0 6f 95 00 00    	imul   $0x956f,%eax,%eax
  4014cb:	89 44 24 e0          	mov    %eax,-0x20(%rsp)
  4014cf:	8b 44 24 d8          	mov    -0x28(%rsp),%eax
  4014d3:	69 c0 a2 87 00 00    	imul   $0x87a2,%eax,%eax
  4014d9:	89 44 24 d8          	mov    %eax,-0x28(%rsp)
  4014dd:	8b 44 24 e8          	mov    -0x18(%rsp),%eax
  4014e1:	69 c0 43 8f 00 00    	imul   $0x8f43,%eax,%eax
  4014e7:	89 44 24 e8          	mov    %eax,-0x18(%rsp)
  4014eb:	8b 44 24 dc          	mov    -0x24(%rsp),%eax
  4014ef:	69 c0 eb d3 00 00    	imul   $0xd3eb,%eax,%eax
  4014f5:	89 44 24 dc          	mov    %eax,-0x24(%rsp)
  4014f9:	8b 44 24 dc          	mov    -0x24(%rsp),%eax
  4014fd:	69 c0 85 8c 00 00    	imul   $0x8c85,%eax,%eax
  401503:	89 44 24 dc          	mov    %eax,-0x24(%rsp)
  401507:	8b 44 24 cc          	mov    -0x34(%rsp),%eax
  40150b:	69 c0 38 3c 00 00    	imul   $0x3c38,%eax,%eax
  401511:	89 44 24 cc          	mov    %eax,-0x34(%rsp)
  401515:	8b 44 24 d8          	mov    -0x28(%rsp),%eax
  401519:	69 c0 bd 2a 00 00    	imul   $0x2abd,%eax,%eax
  40151f:	89 44 24 d8          	mov    %eax,-0x28(%rsp)
  401523:	8b 44 24 d0          	mov    -0x30(%rsp),%eax
  401527:	69 c0 3b f3 00 00    	imul   $0xf33b,%eax,%eax
  40152d:	89 44 24 d0          	mov    %eax,-0x30(%rsp)
  401531:	8b 44 24 d4          	mov    -0x2c(%rsp),%eax
  401535:	69 c0 6a 19 00 00    	imul   $0x196a,%eax,%eax
  40153b:	89 44 24 d4          	mov    %eax,-0x2c(%rsp)
  40153f:	8b 44 24 e8          	mov    -0x18(%rsp),%eax
  401543:	69 c0 96 81 00 00    	imul   $0x8196,%eax,%eax
  401549:	89 44 24 e8          	mov    %eax,-0x18(%rsp)
  40154d:	8b 44 24 e0          	mov    -0x20(%rsp),%eax
  401551:	69 c0 c7 1f 00 00    	imul   $0x1fc7,%eax,%eax
  401557:	89 44 24 e0          	mov    %eax,-0x20(%rsp)
  40155b:	8b 44 24 d8          	mov    -0x28(%rsp),%eax
  40155f:	69 c0 8f 4e 00 00    	imul   $0x4e8f,%eax,%eax
  401565:	89 44 24 d8          	mov    %eax,-0x28(%rsp)
  401569:	8b 44 24 d0          	mov    -0x30(%rsp),%eax
  40156d:	69 c0 c2 1b 00 00    	imul   $0x1bc2,%eax,%eax
  401573:	89 44 24 d0          	mov    %eax,-0x30(%rsp)
  401577:	8b 44 24 cc          	mov    -0x34(%rsp),%eax
  40157b:	69 c0 de 54 00 00    	imul   $0x54de,%eax,%eax
  401581:	89 44 24 cc          	mov    %eax,-0x34(%rsp)
  401585:	8b 44 24 e0          	mov    -0x20(%rsp),%eax
  401589:	69 c0 16 0d 00 00    	imul   $0xd16,%eax,%eax
  40158f:	89 44 24 e0          	mov    %eax,-0x20(%rsp)
  401593:	8b 44 24 c8          	mov    -0x38(%rsp),%eax
  401597:	69 c0 96 bc 00 00    	imul   $0xbc96,%eax,%eax
  40159d:	89 44 24 c8          	mov    %eax,-0x38(%rsp)
  4015a1:	8b 44 24 ec          	mov    -0x14(%rsp),%eax
  4015a5:	69 c0 ce 1f 00 00    	imul   $0x1fce,%eax,%eax
  4015ab:	89 44 24 ec          	mov    %eax,-0x14(%rsp)
  4015af:	8b 44 24 cc          	mov    -0x34(%rsp),%eax
  4015b3:	69 c0 2a bf 00 00    	imul   $0xbf2a,%eax,%eax
  4015b9:	89 44 24 cc          	mov    %eax,-0x34(%rsp)
  4015bd:	8b 44 24 d4          	mov    -0x2c(%rsp),%eax
  4015c1:	69 c0 35 f3 00 00    	imul   $0xf335,%eax,%eax
  4015c7:	89 44 24 d4          	mov    %eax,-0x2c(%rsp)
  4015cb:	8b 44 24 e0          	mov    -0x20(%rsp),%eax
  4015cf:	69 c0 30 a5 00 00    	imul   $0xa530,%eax,%eax
  4015d5:	89 44 24 e0          	mov    %eax,-0x20(%rsp)
  4015d9:	8b 44 24 d8          	mov    -0x28(%rsp),%eax
  4015dd:	69 c0 4f 3f 00 00    	imul   $0x3f4f,%eax,%eax
  4015e3:	89 44 24 d8          	mov    %eax,-0x28(%rsp)
  4015e7:	8b 44 24 d8          	mov    -0x28(%rsp),%eax
  4015eb:	69 c0 51 f7 00 00    	imul   $0xf751,%eax,%eax
  4015f1:	89 44 24 d8          	mov    %eax,-0x28(%rsp)
  4015f5:	8b 44 24 d8          	mov    -0x28(%rsp),%eax
  4015f9:	69 c0 d6 30 00 00    	imul   $0x30d6,%eax,%eax
  4015ff:	89 44 24 d8          	mov    %eax,-0x28(%rsp)
  401603:	8b 44 24 c8          	mov    -0x38(%rsp),%eax
  401607:	69 c0 30 37 00 00    	imul   $0x3730,%eax,%eax
  40160d:	89 44 24 c8          	mov    %eax,-0x38(%rsp)
  401611:	8b 44 24 cc          	mov    -0x34(%rsp),%eax
  401615:	69 c0 07 44 00 00    	imul   $0x4407,%eax,%eax
  40161b:	89 44 24 cc          	mov    %eax,-0x34(%rsp)
  40161f:	8b 44 24 d0          	mov    -0x30(%rsp),%eax
  401623:	69 c0 3f 2d 00 00    	imul   $0x2d3f,%eax,%eax
  401629:	89 44 24 d0          	mov    %eax,-0x30(%rsp)
  40162d:	8b 44 24 c8          	mov    -0x38(%rsp),%eax
  401631:	69 c0 6b 07 00 00    	imul   $0x76b,%eax,%eax
  401637:	89 44 24 c8          	mov    %eax,-0x38(%rsp)
  40163b:	8b 44 24 d4          	mov    -0x2c(%rsp),%eax
  40163f:	69 c0 93 9c 00 00    	imul   $0x9c93,%eax,%eax
  401645:	89 44 24 d4          	mov    %eax,-0x2c(%rsp)
  401649:	8b 44 24 d4          	mov    -0x2c(%rsp),%eax
  40164d:	69 c0 1e 08 00 00    	imul   $0x81e,%eax,%eax
  401653:	89 44 24 d4          	mov    %eax,-0x2c(%rsp)
  401657:	8b 44 24 d4          	mov    -0x2c(%rsp),%eax
  40165b:	69 c0 2d 03 00 00    	imul   $0x32d,%eax,%eax
  401661:	89 44 24 d4          	mov    %eax,-0x2c(%rsp)
  401665:	8b 44 24 e4          	mov    -0x1c(%rsp),%eax
  401669:	69 c0 5f 94 00 00    	imul   $0x945f,%eax,%eax
  40166f:	89 44 24 e4          	mov    %eax,-0x1c(%rsp)
  401673:	8b 44 24 d4          	mov    -0x2c(%rsp),%eax
  401677:	69 c0 bb b7 00 00    	imul   $0xb7bb,%eax,%eax
  40167d:	89 44 24 d4          	mov    %eax,-0x2c(%rsp)
  401681:	8b 44 24 ec          	mov    -0x14(%rsp),%eax
  401685:	69 c0 fc 03 00 00    	imul   $0x3fc,%eax,%eax
  40168b:	89 44 24 ec          	mov    %eax,-0x14(%rsp)
  40168f:	8b 44 24 e4          	mov    -0x1c(%rsp),%eax
  401693:	69 c0 3e 63 00 00    	imul   $0x633e,%eax,%eax
  401699:	89 44 24 e4          	mov    %eax,-0x1c(%rsp)
  40169d:	8b 44 24 d8          	mov    -0x28(%rsp),%eax
  4016a1:	69 c0 fb 09 00 00    	imul   $0x9fb,%eax,%eax
  4016a7:	89 44 24 d8          	mov    %eax,-0x28(%rsp)
  4016ab:	8b 44 24 d8          	mov    -0x28(%rsp),%eax
  4016af:	69 c0 eb 76 00 00    	imul   $0x76eb,%eax,%eax
  4016b5:	89 44 24 d8          	mov    %eax,-0x28(%rsp)
  4016b9:	8b 44 24 d0          	mov    -0x30(%rsp),%eax
  4016bd:	69 c0 d7 e9 00 00    	imul   $0xe9d7,%eax,%eax
  4016c3:	89 44 24 d0          	mov    %eax,-0x30(%rsp)
  4016c7:	8b 44 24 cc          	mov    -0x34(%rsp),%eax
  4016cb:	69 c0 56 b3 00 00    	imul   $0xb356,%eax,%eax
  4016d1:	89 44 24 cc          	mov    %eax,-0x34(%rsp)
  4016d5:	8b 44 24 e4          	mov    -0x1c(%rsp),%eax
  4016d9:	69 c0 c8 58 00 00    	imul   $0x58c8,%eax,%eax
  4016df:	89 44 24 e4          	mov    %eax,-0x1c(%rsp)
  4016e3:	8b 44 24 e4          	mov    -0x1c(%rsp),%eax
  4016e7:	69 c0 ee 64 00 00    	imul   $0x64ee,%eax,%eax
  4016ed:	89 44 24 e4          	mov    %eax,-0x1c(%rsp)
  4016f1:	8b 44 24 d4          	mov    -0x2c(%rsp),%eax
  4016f5:	69 c0 4e a3 00 00    	imul   $0xa34e,%eax,%eax
  4016fb:	89 44 24 d4          	mov    %eax,-0x2c(%rsp)
  4016ff:	8b 44 24 ec          	mov    -0x14(%rsp),%eax
  401703:	69 c0 9e 00 00 00    	imul   $0x9e,%eax,%eax
  401709:	89 44 24 ec          	mov    %eax,-0x14(%rsp)
  40170d:	8b 44 24 e4          	mov    -0x1c(%rsp),%eax
  401711:	69 c0 fb 0d 00 00    	imul   $0xdfb,%eax,%eax
  401717:	89 44 24 e4          	mov    %eax,-0x1c(%rsp)
  40171b:	8b 44 24 c8          	mov    -0x38(%rsp),%eax
  40171f:	69 c0 e7 cd 00 00    	imul   $0xcde7,%eax,%eax
  401725:	89 44 24 c8          	mov    %eax,-0x38(%rsp)
  401729:	8b 44 24 c8          	mov    -0x38(%rsp),%eax
  40172d:	69 c0 a2 8e 00 00    	imul   $0x8ea2,%eax,%eax
  401733:	89 44 24 c8          	mov    %eax,-0x38(%rsp)
  401737:	8b 44 24 d0          	mov    -0x30(%rsp),%eax
  40173b:	69 c0 4f 2b 00 00    	imul   $0x2b4f,%eax,%eax
  401741:	89 44 24 d0          	mov    %eax,-0x30(%rsp)
  401745:	8b 44 24 e8          	mov    -0x18(%rsp),%eax
  401749:	69 c0 d7 90 00 00    	imul   $0x90d7,%eax,%eax
  40174f:	89 44 24 e8          	mov    %eax,-0x18(%rsp)
  401753:	8b 44 24 e8          	mov    -0x18(%rsp),%eax
  401757:	69 c0 2f d7 00 00    	imul   $0xd72f,%eax,%eax
  40175d:	89 44 24 e8          	mov    %eax,-0x18(%rsp)
  401761:	8b 44 24 d0          	mov    -0x30(%rsp),%eax
  401765:	69 c0 ef 59 00 00    	imul   $0x59ef,%eax,%eax
  40176b:	89 44 24 d0          	mov    %eax,-0x30(%rsp)
  40176f:	8b 44 24 c8          	mov    -0x38(%rsp),%eax
  401773:	69 c0 05 8c 00 00    	imul   $0x8c05,%eax,%eax
  401779:	89 44 24 c8          	mov    %eax,-0x38(%rsp)
  40177d:	8b 44 24 d4          	mov    -0x2c(%rsp),%eax
  401781:	69 c0 dc 42 00 00    	imul   $0x42dc,%eax,%eax
  401787:	89 44 24 d4          	mov    %eax,-0x2c(%rsp)
  40178b:	8b 44 24 e4          	mov    -0x1c(%rsp),%eax
  40178f:	69 c0 34 ad 00 00    	imul   $0xad34,%eax,%eax
  401795:	89 44 24 e4          	mov    %eax,-0x1c(%rsp)
  401799:	8b 44 24 dc          	mov    -0x24(%rsp),%eax
  40179d:	69 c0 2d 71 00 00    	imul   $0x712d,%eax,%eax
  4017a3:	89 44 24 dc          	mov    %eax,-0x24(%rsp)
  4017a7:	8b 44 24 e0          	mov    -0x20(%rsp),%eax
  4017ab:	69 c0 61 47 00 00    	imul   $0x4761,%eax,%eax
  4017b1:	89 44 24 e0          	mov    %eax,-0x20(%rsp)
  4017b5:	8b 44 24 d4          	mov    -0x2c(%rsp),%eax
  4017b9:	69 c0 12 4b 00 00    	imul   $0x4b12,%eax,%eax
  4017bf:	89 44 24 d4          	mov    %eax,-0x2c(%rsp)
  4017c3:	8b 44 24 d0          	mov    -0x30(%rsp),%eax
  4017c7:	69 c0 c5 66 00 00    	imul   $0x66c5,%eax,%eax
  4017cd:	89 44 24 d0          	mov    %eax,-0x30(%rsp)
  4017d1:	8b 44 24 d4          	mov    -0x2c(%rsp),%eax
  4017d5:	69 c0 7c 3e 00 00    	imul   $0x3e7c,%eax,%eax
  4017db:	89 44 24 d4          	mov    %eax,-0x2c(%rsp)
  4017df:	8b 44 24 d4          	mov    -0x2c(%rsp),%eax
  4017e3:	69 c0 19 99 00 00    	imul   $0x9919,%eax,%eax
  4017e9:	89 44 24 d4          	mov    %eax,-0x2c(%rsp)
  4017ed:	8b 44 24 e0          	mov    -0x20(%rsp),%eax
  4017f1:	69 c0 94 04 00 00    	imul   $0x494,%eax,%eax
  4017f7:	89 44 24 e0          	mov    %eax,-0x20(%rsp)
  4017fb:	8b 44 24 d4          	mov    -0x2c(%rsp),%eax
  4017ff:	69 c0 91 62 00 00    	imul   $0x6291,%eax,%eax
  401805:	89 44 24 d4          	mov    %eax,-0x2c(%rsp)
  401809:	8b 44 24 e0          	mov    -0x20(%rsp),%eax
  40180d:	69 c0 14 38 00 00    	imul   $0x3814,%eax,%eax
  401813:	89 44 24 e0          	mov    %eax,-0x20(%rsp)
  401817:	8b 44 24 e0          	mov    -0x20(%rsp),%eax
  40181b:	69 c0 39 b6 00 00    	imul   $0xb639,%eax,%eax
  401821:	89 44 24 e0          	mov    %eax,-0x20(%rsp)
  401825:	8b 44 24 d0          	mov    -0x30(%rsp),%eax
  401829:	69 c0 ea 70 00 00    	imul   $0x70ea,%eax,%eax
  40182f:	89 44 24 d0          	mov    %eax,-0x30(%rsp)
  401833:	8b 44 24 d0          	mov    -0x30(%rsp),%eax
  401837:	69 c0 c0 5d 00 00    	imul   $0x5dc0,%eax,%eax
  40183d:	89 44 24 d0          	mov    %eax,-0x30(%rsp)
  401841:	8b 44 24 d4          	mov    -0x2c(%rsp),%eax
  401845:	69 c0 d6 c7 00 00    	imul   $0xc7d6,%eax,%eax
  40184b:	89 44 24 d4          	mov    %eax,-0x2c(%rsp)
  40184f:	8b 44 24 d4          	mov    -0x2c(%rsp),%eax
  401853:	69 c0 c4 2e 00 00    	imul   $0x2ec4,%eax,%eax
  401859:	89 44 24 d4          	mov    %eax,-0x2c(%rsp)
  40185d:	8b 44 24 d4          	mov    -0x2c(%rsp),%eax
  401861:	69 c0 b6 ec 00 00    	imul   $0xecb6,%eax,%eax
  401867:	89 44 24 d4          	mov    %eax,-0x2c(%rsp)
  40186b:	8b 44 24 d8          	mov    -0x28(%rsp),%eax
  40186f:	69 c0 66 37 00 00    	imul   $0x3766,%eax,%eax
  401875:	89 44 24 d8          	mov    %eax,-0x28(%rsp)
  401879:	8b 44 24 d4          	mov    -0x2c(%rsp),%eax
  40187d:	69 c0 84 3c 00 00    	imul   $0x3c84,%eax,%eax
  401883:	89 44 24 d4          	mov    %eax,-0x2c(%rsp)
  401887:	8b 44 24 d8          	mov    -0x28(%rsp),%eax
  40188b:	69 c0 da 27 00 00    	imul   $0x27da,%eax,%eax
  401891:	89 44 24 d8          	mov    %eax,-0x28(%rsp)
  401895:	8b 44 24 d4          	mov    -0x2c(%rsp),%eax
  401899:	69 c0 16 2b 00 00    	imul   $0x2b16,%eax,%eax
  40189f:	89 44 24 d4          	mov    %eax,-0x2c(%rsp)
  4018a3:	8b 44 24 d8          	mov    -0x28(%rsp),%eax
  4018a7:	69 c0 f6 75 00 00    	imul   $0x75f6,%eax,%eax
  4018ad:	89 44 24 d8          	mov    %eax,-0x28(%rsp)
  4018b1:	ba 00 00 00 00       	mov    $0x0,%edx
  4018b6:	b8 00 00 00 00       	mov    $0x0,%eax
  4018bb:	eb 0b                	jmp    4018c8 <scramble+0x52f>
  4018bd:	89 d1                	mov    %edx,%ecx
  4018bf:	8b 4c 8c c8          	mov    -0x38(%rsp,%rcx,4),%ecx
  4018c3:	01 c8                	add    %ecx,%eax
  4018c5:	83 c2 01             	add    $0x1,%edx
  4018c8:	83 fa 09             	cmp    $0x9,%edx
  4018cb:	76 f0                	jbe    4018bd <scramble+0x524>
  4018cd:	f3 c3                	repz retq 

00000000004018cf <getbuf>:
  4018cf:	48 83 ec 38          	sub    $0x38,%rsp
  4018d3:	48 89 e7             	mov    %rsp,%rdi
  4018d6:	e8 85 02 00 00       	callq  401b60 <Gets>
  4018db:	b8 01 00 00 00       	mov    $0x1,%eax
  4018e0:	48 83 c4 38          	add    $0x38,%rsp
  4018e4:	c3                   	retq   

00000000004018e5 <touch1>:
  4018e5:	48 83 ec 08          	sub    $0x8,%rsp
  4018e9:	c7 05 29 2c 20 00 01 	movl   $0x1,0x202c29(%rip)        # 60451c <vlevel>
  4018f0:	00 00 00 
  4018f3:	bf f6 31 40 00       	mov    $0x4031f6,%edi
  4018f8:	e8 e3 f3 ff ff       	callq  400ce0 <puts@plt>
  4018fd:	bf 01 00 00 00       	mov    $0x1,%edi
  401902:	e8 af 04 00 00       	callq  401db6 <validate>
  401907:	bf 00 00 00 00       	mov    $0x0,%edi
  40190c:	e8 5f f5 ff ff       	callq  400e70 <exit@plt>

0000000000401911 <touch2>:
  401911:	48 83 ec 08          	sub    $0x8,%rsp
  401915:	89 fa                	mov    %edi,%edx
  401917:	c7 05 fb 2b 20 00 02 	movl   $0x2,0x202bfb(%rip)        # 60451c <vlevel>
  40191e:	00 00 00 
  401921:	3b 3d fd 2b 20 00    	cmp    0x202bfd(%rip),%edi        # 604524 <cookie>
  401927:	75 20                	jne    401949 <touch2+0x38>
  401929:	be 18 32 40 00       	mov    $0x403218,%esi
  40192e:	bf 01 00 00 00       	mov    $0x1,%edi
  401933:	b8 00 00 00 00       	mov    $0x0,%eax
  401938:	e8 e3 f4 ff ff       	callq  400e20 <__printf_chk@plt>
  40193d:	bf 02 00 00 00       	mov    $0x2,%edi
  401942:	e8 6f 04 00 00       	callq  401db6 <validate>
  401947:	eb 1e                	jmp    401967 <touch2+0x56>
  401949:	be 40 32 40 00       	mov    $0x403240,%esi
  40194e:	bf 01 00 00 00       	mov    $0x1,%edi
  401953:	b8 00 00 00 00       	mov    $0x0,%eax
  401958:	e8 c3 f4 ff ff       	callq  400e20 <__printf_chk@plt>
  40195d:	bf 02 00 00 00       	mov    $0x2,%edi
  401962:	e8 11 05 00 00       	callq  401e78 <fail>
  401967:	bf 00 00 00 00       	mov    $0x0,%edi
  40196c:	e8 ff f4 ff ff       	callq  400e70 <exit@plt>

0000000000401971 <hexmatch>:
  401971:	41 54                	push   %r12
  401973:	55                   	push   %rbp
  401974:	53                   	push   %rbx
  401975:	48 83 c4 80          	add    $0xffffffffffffff80,%rsp
  401979:	41 89 fc             	mov    %edi,%r12d
  40197c:	48 89 f5             	mov    %rsi,%rbp
  40197f:	64 48 8b 04 25 28 00 	mov    %fs:0x28,%rax
  401986:	00 00 
  401988:	48 89 44 24 78       	mov    %rax,0x78(%rsp)
  40198d:	31 c0                	xor    %eax,%eax
  40198f:	e8 4c f4 ff ff       	callq  400de0 <random@plt>
  401994:	48 89 c1             	mov    %rax,%rcx
  401997:	48 ba 0b d7 a3 70 3d 	movabs $0xa3d70a3d70a3d70b,%rdx
  40199e:	0a d7 a3 
  4019a1:	48 f7 ea             	imul   %rdx
  4019a4:	48 01 ca             	add    %rcx,%rdx
  4019a7:	48 c1 fa 06          	sar    $0x6,%rdx
  4019ab:	48 89 c8             	mov    %rcx,%rax
  4019ae:	48 c1 f8 3f          	sar    $0x3f,%rax
  4019b2:	48 29 c2             	sub    %rax,%rdx
  4019b5:	48 8d 04 92          	lea    (%rdx,%rdx,4),%rax
  4019b9:	48 8d 04 80          	lea    (%rax,%rax,4),%rax
  4019bd:	48 c1 e0 02          	shl    $0x2,%rax
  4019c1:	48 29 c1             	sub    %rax,%rcx
  4019c4:	48 8d 1c 0c          	lea    (%rsp,%rcx,1),%rbx
  4019c8:	45 89 e0             	mov    %r12d,%r8d
  4019cb:	b9 13 32 40 00       	mov    $0x403213,%ecx
  4019d0:	48 c7 c2 ff ff ff ff 	mov    $0xffffffffffffffff,%rdx
  4019d7:	be 01 00 00 00       	mov    $0x1,%esi
  4019dc:	48 89 df             	mov    %rbx,%rdi
  4019df:	b8 00 00 00 00       	mov    $0x0,%eax
  4019e4:	e8 b7 f4 ff ff       	callq  400ea0 <__sprintf_chk@plt>
  4019e9:	ba 09 00 00 00       	mov    $0x9,%edx
  4019ee:	48 89 de             	mov    %rbx,%rsi
  4019f1:	48 89 ef             	mov    %rbp,%rdi
  4019f4:	e8 c7 f2 ff ff       	callq  400cc0 <strncmp@plt>
  4019f9:	85 c0                	test   %eax,%eax
  4019fb:	0f 94 c0             	sete   %al
  4019fe:	0f b6 c0             	movzbl %al,%eax
  401a01:	48 8b 74 24 78       	mov    0x78(%rsp),%rsi
  401a06:	64 48 33 34 25 28 00 	xor    %fs:0x28,%rsi
  401a0d:	00 00 
  401a0f:	74 05                	je     401a16 <hexmatch+0xa5>
  401a11:	e8 ea f2 ff ff       	callq  400d00 <__stack_chk_fail@plt>
  401a16:	48 83 ec 80          	sub    $0xffffffffffffff80,%rsp
  401a1a:	5b                   	pop    %rbx
  401a1b:	5d                   	pop    %rbp
  401a1c:	41 5c                	pop    %r12
  401a1e:	c3                   	retq   

0000000000401a1f <touch3>:
  401a1f:	53                   	push   %rbx
  401a20:	48 89 fb             	mov    %rdi,%rbx
  401a23:	c7 05 ef 2a 20 00 03 	movl   $0x3,0x202aef(%rip)        # 60451c <vlevel>
  401a2a:	00 00 00 
  401a2d:	48 89 fe             	mov    %rdi,%rsi
  401a30:	8b 3d ee 2a 20 00    	mov    0x202aee(%rip),%edi        # 604524 <cookie>
  401a36:	e8 36 ff ff ff       	callq  401971 <hexmatch>
  401a3b:	85 c0                	test   %eax,%eax
  401a3d:	74 23                	je     401a62 <touch3+0x43>
  401a3f:	48 89 da             	mov    %rbx,%rdx
  401a42:	be 68 32 40 00       	mov    $0x403268,%esi
  401a47:	bf 01 00 00 00       	mov    $0x1,%edi
  401a4c:	b8 00 00 00 00       	mov    $0x0,%eax
  401a51:	e8 ca f3 ff ff       	callq  400e20 <__printf_chk@plt>
  401a56:	bf 03 00 00 00       	mov    $0x3,%edi
  401a5b:	e8 56 03 00 00       	callq  401db6 <validate>
  401a60:	eb 21                	jmp    401a83 <touch3+0x64>
  401a62:	48 89 da             	mov    %rbx,%rdx
  401a65:	be 90 32 40 00       	mov    $0x403290,%esi
  401a6a:	bf 01 00 00 00       	mov    $0x1,%edi
  401a6f:	b8 00 00 00 00       	mov    $0x0,%eax
  401a74:	e8 a7 f3 ff ff       	callq  400e20 <__printf_chk@plt>
  401a79:	bf 03 00 00 00       	mov    $0x3,%edi
  401a7e:	e8 f5 03 00 00       	callq  401e78 <fail>
  401a83:	bf 00 00 00 00       	mov    $0x0,%edi
  401a88:	e8 e3 f3 ff ff       	callq  400e70 <exit@plt>

0000000000401a8d <test>:
  401a8d:	48 83 ec 08          	sub    $0x8,%rsp
  401a91:	b8 00 00 00 00       	mov    $0x0,%eax
  401a96:	e8 34 fe ff ff       	callq  4018cf <getbuf>
  401a9b:	89 c2                	mov    %eax,%edx
  401a9d:	be b8 32 40 00       	mov    $0x4032b8,%esi
  401aa2:	bf 01 00 00 00       	mov    $0x1,%edi
  401aa7:	b8 00 00 00 00       	mov    $0x0,%eax
  401aac:	e8 6f f3 ff ff       	callq  400e20 <__printf_chk@plt>
  401ab1:	48 83 c4 08          	add    $0x8,%rsp
  401ab5:	c3                   	retq   
  401ab6:	66 2e 0f 1f 84 00 00 	nopw   %cs:0x0(%rax,%rax,1)
  401abd:	00 00 00 

0000000000401ac0 <save_char>:
  401ac0:	8b 05 7e 36 20 00    	mov    0x20367e(%rip),%eax        # 605144 <gets_cnt>
  401ac6:	3d ff 03 00 00       	cmp    $0x3ff,%eax
  401acb:	7f 49                	jg     401b16 <save_char+0x56>
  401acd:	8d 14 40             	lea    (%rax,%rax,2),%edx
  401ad0:	89 f9                	mov    %edi,%ecx
  401ad2:	c0 e9 04             	shr    $0x4,%cl
  401ad5:	83 e1 0f             	and    $0xf,%ecx
  401ad8:	0f b6 b1 e0 35 40 00 	movzbl 0x4035e0(%rcx),%esi
  401adf:	48 63 ca             	movslq %edx,%rcx
  401ae2:	40 88 b1 40 45 60 00 	mov    %sil,0x604540(%rcx)
  401ae9:	8d 4a 01             	lea    0x1(%rdx),%ecx
  401aec:	83 e7 0f             	and    $0xf,%edi
  401aef:	0f b6 b7 e0 35 40 00 	movzbl 0x4035e0(%rdi),%esi
  401af6:	48 63 c9             	movslq %ecx,%rcx
  401af9:	40 88 b1 40 45 60 00 	mov    %sil,0x604540(%rcx)
  401b00:	83 c2 02             	add    $0x2,%edx
  401b03:	48 63 d2             	movslq %edx,%rdx
  401b06:	c6 82 40 45 60 00 20 	movb   $0x20,0x604540(%rdx)
  401b0d:	83 c0 01             	add    $0x1,%eax
  401b10:	89 05 2e 36 20 00    	mov    %eax,0x20362e(%rip)        # 605144 <gets_cnt>
  401b16:	f3 c3                	repz retq 

0000000000401b18 <save_term>:
  401b18:	8b 05 26 36 20 00    	mov    0x203626(%rip),%eax        # 605144 <gets_cnt>
  401b1e:	8d 04 40             	lea    (%rax,%rax,2),%eax
  401b21:	48 98                	cltq   
  401b23:	c6 80 40 45 60 00 00 	movb   $0x0,0x604540(%rax)
  401b2a:	c3                   	retq   

0000000000401b2b <check_fail>:
  401b2b:	48 83 ec 08          	sub    $0x8,%rsp
  401b2f:	0f be 15 12 36 20 00 	movsbl 0x203612(%rip),%edx        # 605148 <target_prefix>
  401b36:	41 b8 40 45 60 00    	mov    $0x604540,%r8d
  401b3c:	8b 0d d6 29 20 00    	mov    0x2029d6(%rip),%ecx        # 604518 <check_level>
  401b42:	be db 32 40 00       	mov    $0x4032db,%esi
  401b47:	bf 01 00 00 00       	mov    $0x1,%edi
  401b4c:	b8 00 00 00 00       	mov    $0x0,%eax
  401b51:	e8 ca f2 ff ff       	callq  400e20 <__printf_chk@plt>
  401b56:	bf 01 00 00 00       	mov    $0x1,%edi
  401b5b:	e8 10 f3 ff ff       	callq  400e70 <exit@plt>

0000000000401b60 <Gets>:
  401b60:	41 54                	push   %r12
  401b62:	55                   	push   %rbp
  401b63:	53                   	push   %rbx
  401b64:	49 89 fc             	mov    %rdi,%r12
  401b67:	c7 05 d3 35 20 00 00 	movl   $0x0,0x2035d3(%rip)        # 605144 <gets_cnt>
  401b6e:	00 00 00 
  401b71:	48 89 fb             	mov    %rdi,%rbx
  401b74:	eb 11                	jmp    401b87 <Gets+0x27>
  401b76:	48 8d 6b 01          	lea    0x1(%rbx),%rbp
  401b7a:	88 03                	mov    %al,(%rbx)
  401b7c:	0f b6 f8             	movzbl %al,%edi
  401b7f:	e8 3c ff ff ff       	callq  401ac0 <save_char>
  401b84:	48 89 eb             	mov    %rbp,%rbx
  401b87:	48 8b 3d 82 29 20 00 	mov    0x202982(%rip),%rdi        # 604510 <infile>
  401b8e:	e8 5d f2 ff ff       	callq  400df0 <_IO_getc@plt>
  401b93:	83 f8 ff             	cmp    $0xffffffff,%eax
  401b96:	74 05                	je     401b9d <Gets+0x3d>
  401b98:	83 f8 0a             	cmp    $0xa,%eax
  401b9b:	75 d9                	jne    401b76 <Gets+0x16>
  401b9d:	c6 03 00             	movb   $0x0,(%rbx)
  401ba0:	b8 00 00 00 00       	mov    $0x0,%eax
  401ba5:	e8 6e ff ff ff       	callq  401b18 <save_term>
  401baa:	4c 89 e0             	mov    %r12,%rax
  401bad:	5b                   	pop    %rbx
  401bae:	5d                   	pop    %rbp
  401baf:	41 5c                	pop    %r12
  401bb1:	c3                   	retq   

0000000000401bb2 <notify_server>:
  401bb2:	53                   	push   %rbx
  401bb3:	48 81 ec 30 40 00 00 	sub    $0x4030,%rsp
  401bba:	64 48 8b 04 25 28 00 	mov    %fs:0x28,%rax
  401bc1:	00 00 
  401bc3:	48 89 84 24 28 40 00 	mov    %rax,0x4028(%rsp)
  401bca:	00 
  401bcb:	31 c0                	xor    %eax,%eax
  401bcd:	83 3d 54 29 20 00 00 	cmpl   $0x0,0x202954(%rip)        # 604528 <is_checker>
  401bd4:	0f 85 bb 01 00 00    	jne    401d95 <notify_server+0x1e3>
  401bda:	89 fb                	mov    %edi,%ebx
  401bdc:	8b 05 62 35 20 00    	mov    0x203562(%rip),%eax        # 605144 <gets_cnt>
  401be2:	83 c0 64             	add    $0x64,%eax
  401be5:	3d 00 20 00 00       	cmp    $0x2000,%eax
  401bea:	7e 1e                	jle    401c0a <notify_server+0x58>
  401bec:	be 10 34 40 00       	mov    $0x403410,%esi
  401bf1:	bf 01 00 00 00       	mov    $0x1,%edi
  401bf6:	b8 00 00 00 00       	mov    $0x0,%eax
  401bfb:	e8 20 f2 ff ff       	callq  400e20 <__printf_chk@plt>
  401c00:	bf 01 00 00 00       	mov    $0x1,%edi
  401c05:	e8 66 f2 ff ff       	callq  400e70 <exit@plt>
  401c0a:	0f be 05 37 35 20 00 	movsbl 0x203537(%rip),%eax        # 605148 <target_prefix>
  401c11:	83 3d 90 28 20 00 00 	cmpl   $0x0,0x202890(%rip)        # 6044a8 <notify>
  401c18:	74 08                	je     401c22 <notify_server+0x70>
  401c1a:	8b 15 00 29 20 00    	mov    0x202900(%rip),%edx        # 604520 <authkey>
  401c20:	eb 05                	jmp    401c27 <notify_server+0x75>
  401c22:	ba ff ff ff ff       	mov    $0xffffffff,%edx
  401c27:	85 db                	test   %ebx,%ebx
  401c29:	74 08                	je     401c33 <notify_server+0x81>
  401c2b:	41 b9 f1 32 40 00    	mov    $0x4032f1,%r9d
  401c31:	eb 06                	jmp    401c39 <notify_server+0x87>
  401c33:	41 b9 f6 32 40 00    	mov    $0x4032f6,%r9d
  401c39:	48 c7 44 24 18 40 45 	movq   $0x604540,0x18(%rsp)
  401c40:	60 00 
  401c42:	89 74 24 10          	mov    %esi,0x10(%rsp)
  401c46:	89 44 24 08          	mov    %eax,0x8(%rsp)
  401c4a:	89 14 24             	mov    %edx,(%rsp)
  401c4d:	44 8b 05 14 25 20 00 	mov    0x202514(%rip),%r8d        # 604168 <target_id>
  401c54:	b9 fb 32 40 00       	mov    $0x4032fb,%ecx
  401c59:	ba 00 20 00 00       	mov    $0x2000,%edx
  401c5e:	be 01 00 00 00       	mov    $0x1,%esi
  401c63:	48 8d 7c 24 20       	lea    0x20(%rsp),%rdi
  401c68:	b8 00 00 00 00       	mov    $0x0,%eax
  401c6d:	e8 2e f2 ff ff       	callq  400ea0 <__sprintf_chk@plt>
  401c72:	83 3d 2f 28 20 00 00 	cmpl   $0x0,0x20282f(%rip)        # 6044a8 <notify>
  401c79:	0f 84 86 00 00 00    	je     401d05 <notify_server+0x153>
  401c7f:	85 db                	test   %ebx,%ebx
  401c81:	74 70                	je     401cf3 <notify_server+0x141>
  401c83:	4c 8d 8c 24 20 20 00 	lea    0x2020(%rsp),%r9
  401c8a:	00 
  401c8b:	41 b8 00 00 00 00    	mov    $0x0,%r8d
  401c91:	48 8d 4c 24 20       	lea    0x20(%rsp),%rcx
  401c96:	48 8b 15 d3 24 20 00 	mov    0x2024d3(%rip),%rdx        # 604170 <lab>
  401c9d:	48 8b 35 d4 24 20 00 	mov    0x2024d4(%rip),%rsi        # 604178 <course>
  401ca4:	48 8b 3d b5 24 20 00 	mov    0x2024b5(%rip),%rdi        # 604160 <user_id>
  401cab:	e8 be 10 00 00       	callq  402d6e <driver_post>
  401cb0:	85 c0                	test   %eax,%eax
  401cb2:	79 26                	jns    401cda <notify_server+0x128>
  401cb4:	48 8d 94 24 20 20 00 	lea    0x2020(%rsp),%rdx
  401cbb:	00 
  401cbc:	be 17 33 40 00       	mov    $0x403317,%esi
  401cc1:	bf 01 00 00 00       	mov    $0x1,%edi
  401cc6:	b8 00 00 00 00       	mov    $0x0,%eax
  401ccb:	e8 50 f1 ff ff       	callq  400e20 <__printf_chk@plt>
  401cd0:	bf 01 00 00 00       	mov    $0x1,%edi
  401cd5:	e8 96 f1 ff ff       	callq  400e70 <exit@plt>
  401cda:	bf 40 34 40 00       	mov    $0x403440,%edi
  401cdf:	e8 fc ef ff ff       	callq  400ce0 <puts@plt>
  401ce4:	bf 23 33 40 00       	mov    $0x403323,%edi
  401ce9:	e8 f2 ef ff ff       	callq  400ce0 <puts@plt>
  401cee:	e9 a2 00 00 00       	jmpq   401d95 <notify_server+0x1e3>
  401cf3:	bf 2d 33 40 00       	mov    $0x40332d,%edi
  401cf8:	e8 e3 ef ff ff       	callq  400ce0 <puts@plt>
  401cfd:	0f 1f 00             	nopl   (%rax)
  401d00:	e9 90 00 00 00       	jmpq   401d95 <notify_server+0x1e3>
  401d05:	85 db                	test   %ebx,%ebx
  401d07:	74 09                	je     401d12 <notify_server+0x160>
  401d09:	ba f1 32 40 00       	mov    $0x4032f1,%edx
  401d0e:	66 90                	xchg   %ax,%ax
  401d10:	eb 05                	jmp    401d17 <notify_server+0x165>
  401d12:	ba f6 32 40 00       	mov    $0x4032f6,%edx
  401d17:	be 78 34 40 00       	mov    $0x403478,%esi
  401d1c:	bf 01 00 00 00       	mov    $0x1,%edi
  401d21:	b8 00 00 00 00       	mov    $0x0,%eax
  401d26:	e8 f5 f0 ff ff       	callq  400e20 <__printf_chk@plt>
  401d2b:	48 8b 15 2e 24 20 00 	mov    0x20242e(%rip),%rdx        # 604160 <user_id>
  401d32:	be 34 33 40 00       	mov    $0x403334,%esi
  401d37:	bf 01 00 00 00       	mov    $0x1,%edi
  401d3c:	b8 00 00 00 00       	mov    $0x0,%eax
  401d41:	e8 da f0 ff ff       	callq  400e20 <__printf_chk@plt>
  401d46:	48 8b 15 2b 24 20 00 	mov    0x20242b(%rip),%rdx        # 604178 <course>
  401d4d:	be 41 33 40 00       	mov    $0x403341,%esi
  401d52:	bf 01 00 00 00       	mov    $0x1,%edi
  401d57:	b8 00 00 00 00       	mov    $0x0,%eax
  401d5c:	e8 bf f0 ff ff       	callq  400e20 <__printf_chk@plt>
  401d61:	48 8b 15 08 24 20 00 	mov    0x202408(%rip),%rdx        # 604170 <lab>
  401d68:	be 4d 33 40 00       	mov    $0x40334d,%esi
  401d6d:	bf 01 00 00 00       	mov    $0x1,%edi
  401d72:	b8 00 00 00 00       	mov    $0x0,%eax
  401d77:	e8 a4 f0 ff ff       	callq  400e20 <__printf_chk@plt>
  401d7c:	48 8d 54 24 20       	lea    0x20(%rsp),%rdx
  401d81:	be 56 33 40 00       	mov    $0x403356,%esi
  401d86:	bf 01 00 00 00       	mov    $0x1,%edi
  401d8b:	b8 00 00 00 00       	mov    $0x0,%eax
  401d90:	e8 8b f0 ff ff       	callq  400e20 <__printf_chk@plt>
  401d95:	48 8b 84 24 28 40 00 	mov    0x4028(%rsp),%rax
  401d9c:	00 
  401d9d:	64 48 33 04 25 28 00 	xor    %fs:0x28,%rax
  401da4:	00 00 
  401da6:	74 05                	je     401dad <notify_server+0x1fb>
  401da8:	e8 53 ef ff ff       	callq  400d00 <__stack_chk_fail@plt>
  401dad:	48 81 c4 30 40 00 00 	add    $0x4030,%rsp
  401db4:	5b                   	pop    %rbx
  401db5:	c3                   	retq   

0000000000401db6 <validate>:
  401db6:	53                   	push   %rbx
  401db7:	89 fb                	mov    %edi,%ebx
  401db9:	83 3d 68 27 20 00 00 	cmpl   $0x0,0x202768(%rip)        # 604528 <is_checker>
  401dc0:	74 6b                	je     401e2d <validate+0x77>
  401dc2:	39 3d 54 27 20 00    	cmp    %edi,0x202754(%rip)        # 60451c <vlevel>
  401dc8:	74 14                	je     401dde <validate+0x28>
  401dca:	bf 62 33 40 00       	mov    $0x403362,%edi
  401dcf:	e8 0c ef ff ff       	callq  400ce0 <puts@plt>
  401dd4:	b8 00 00 00 00       	mov    $0x0,%eax
  401dd9:	e8 4d fd ff ff       	callq  401b2b <check_fail>
  401dde:	8b 15 34 27 20 00    	mov    0x202734(%rip),%edx        # 604518 <check_level>
  401de4:	39 fa                	cmp    %edi,%edx
  401de6:	74 20                	je     401e08 <validate+0x52>
  401de8:	89 f9                	mov    %edi,%ecx
  401dea:	be a0 34 40 00       	mov    $0x4034a0,%esi
  401def:	bf 01 00 00 00       	mov    $0x1,%edi
  401df4:	b8 00 00 00 00       	mov    $0x0,%eax
  401df9:	e8 22 f0 ff ff       	callq  400e20 <__printf_chk@plt>
  401dfe:	b8 00 00 00 00       	mov    $0x0,%eax
  401e03:	e8 23 fd ff ff       	callq  401b2b <check_fail>
  401e08:	0f be 15 39 33 20 00 	movsbl 0x203339(%rip),%edx        # 605148 <target_prefix>
  401e0f:	41 b8 40 45 60 00    	mov    $0x604540,%r8d
  401e15:	89 f9                	mov    %edi,%ecx
  401e17:	be 80 33 40 00       	mov    $0x403380,%esi
  401e1c:	bf 01 00 00 00       	mov    $0x1,%edi
  401e21:	b8 00 00 00 00       	mov    $0x0,%eax
  401e26:	e8 f5 ef ff ff       	callq  400e20 <__printf_chk@plt>
  401e2b:	eb 49                	jmp    401e76 <validate+0xc0>
  401e2d:	39 3d e9 26 20 00    	cmp    %edi,0x2026e9(%rip)        # 60451c <vlevel>
  401e33:	74 18                	je     401e4d <validate+0x97>
  401e35:	bf 62 33 40 00       	mov    $0x403362,%edi
  401e3a:	e8 a1 ee ff ff       	callq  400ce0 <puts@plt>
  401e3f:	89 de                	mov    %ebx,%esi
  401e41:	bf 00 00 00 00       	mov    $0x0,%edi
  401e46:	e8 67 fd ff ff       	callq  401bb2 <notify_server>
  401e4b:	eb 29                	jmp    401e76 <validate+0xc0>
  401e4d:	0f be 0d f4 32 20 00 	movsbl 0x2032f4(%rip),%ecx        # 605148 <target_prefix>
  401e54:	89 fa                	mov    %edi,%edx
  401e56:	be c8 34 40 00       	mov    $0x4034c8,%esi
  401e5b:	bf 01 00 00 00       	mov    $0x1,%edi
  401e60:	b8 00 00 00 00       	mov    $0x0,%eax
  401e65:	e8 b6 ef ff ff       	callq  400e20 <__printf_chk@plt>
  401e6a:	89 de                	mov    %ebx,%esi
  401e6c:	bf 01 00 00 00       	mov    $0x1,%edi
  401e71:	e8 3c fd ff ff       	callq  401bb2 <notify_server>
  401e76:	5b                   	pop    %rbx
  401e77:	c3                   	retq   

0000000000401e78 <fail>:
  401e78:	48 83 ec 08          	sub    $0x8,%rsp
  401e7c:	83 3d a5 26 20 00 00 	cmpl   $0x0,0x2026a5(%rip)        # 604528 <is_checker>
  401e83:	74 0a                	je     401e8f <fail+0x17>
  401e85:	b8 00 00 00 00       	mov    $0x0,%eax
  401e8a:	e8 9c fc ff ff       	callq  401b2b <check_fail>
  401e8f:	89 fe                	mov    %edi,%esi
  401e91:	bf 00 00 00 00       	mov    $0x0,%edi
  401e96:	e8 17 fd ff ff       	callq  401bb2 <notify_server>
  401e9b:	48 83 c4 08          	add    $0x8,%rsp
  401e9f:	c3                   	retq   

0000000000401ea0 <bushandler>:
  401ea0:	48 83 ec 08          	sub    $0x8,%rsp
  401ea4:	83 3d 7d 26 20 00 00 	cmpl   $0x0,0x20267d(%rip)        # 604528 <is_checker>
  401eab:	74 14                	je     401ec1 <bushandler+0x21>
  401ead:	bf 95 33 40 00       	mov    $0x403395,%edi
  401eb2:	e8 29 ee ff ff       	callq  400ce0 <puts@plt>
  401eb7:	b8 00 00 00 00       	mov    $0x0,%eax
  401ebc:	e8 6a fc ff ff       	callq  401b2b <check_fail>
  401ec1:	bf 00 35 40 00       	mov    $0x403500,%edi
  401ec6:	e8 15 ee ff ff       	callq  400ce0 <puts@plt>
  401ecb:	bf 9f 33 40 00       	mov    $0x40339f,%edi
  401ed0:	e8 0b ee ff ff       	callq  400ce0 <puts@plt>
  401ed5:	be 00 00 00 00       	mov    $0x0,%esi
  401eda:	bf 00 00 00 00       	mov    $0x0,%edi
  401edf:	e8 ce fc ff ff       	callq  401bb2 <notify_server>
  401ee4:	bf 01 00 00 00       	mov    $0x1,%edi
  401ee9:	e8 82 ef ff ff       	callq  400e70 <exit@plt>

0000000000401eee <seghandler>:
  401eee:	48 83 ec 08          	sub    $0x8,%rsp
  401ef2:	83 3d 2f 26 20 00 00 	cmpl   $0x0,0x20262f(%rip)        # 604528 <is_checker>
  401ef9:	74 14                	je     401f0f <seghandler+0x21>
  401efb:	bf b5 33 40 00       	mov    $0x4033b5,%edi
  401f00:	e8 db ed ff ff       	callq  400ce0 <puts@plt>
  401f05:	b8 00 00 00 00       	mov    $0x0,%eax
  401f0a:	e8 1c fc ff ff       	callq  401b2b <check_fail>
  401f0f:	bf 20 35 40 00       	mov    $0x403520,%edi
  401f14:	e8 c7 ed ff ff       	callq  400ce0 <puts@plt>
  401f19:	bf 9f 33 40 00       	mov    $0x40339f,%edi
  401f1e:	e8 bd ed ff ff       	callq  400ce0 <puts@plt>
  401f23:	be 00 00 00 00       	mov    $0x0,%esi
  401f28:	bf 00 00 00 00       	mov    $0x0,%edi
  401f2d:	e8 80 fc ff ff       	callq  401bb2 <notify_server>
  401f32:	bf 01 00 00 00       	mov    $0x1,%edi
  401f37:	e8 34 ef ff ff       	callq  400e70 <exit@plt>

0000000000401f3c <illegalhandler>:
  401f3c:	48 83 ec 08          	sub    $0x8,%rsp
  401f40:	83 3d e1 25 20 00 00 	cmpl   $0x0,0x2025e1(%rip)        # 604528 <is_checker>
  401f47:	74 14                	je     401f5d <illegalhandler+0x21>
  401f49:	bf c8 33 40 00       	mov    $0x4033c8,%edi
  401f4e:	e8 8d ed ff ff       	callq  400ce0 <puts@plt>
  401f53:	b8 00 00 00 00       	mov    $0x0,%eax
  401f58:	e8 ce fb ff ff       	callq  401b2b <check_fail>
  401f5d:	bf 48 35 40 00       	mov    $0x403548,%edi
  401f62:	e8 79 ed ff ff       	callq  400ce0 <puts@plt>
  401f67:	bf 9f 33 40 00       	mov    $0x40339f,%edi
  401f6c:	e8 6f ed ff ff       	callq  400ce0 <puts@plt>
  401f71:	be 00 00 00 00       	mov    $0x0,%esi
  401f76:	bf 00 00 00 00       	mov    $0x0,%edi
  401f7b:	e8 32 fc ff ff       	callq  401bb2 <notify_server>
  401f80:	bf 01 00 00 00       	mov    $0x1,%edi
  401f85:	e8 e6 ee ff ff       	callq  400e70 <exit@plt>

0000000000401f8a <sigalrmhandler>:
  401f8a:	48 83 ec 08          	sub    $0x8,%rsp
  401f8e:	83 3d 93 25 20 00 00 	cmpl   $0x0,0x202593(%rip)        # 604528 <is_checker>
  401f95:	74 14                	je     401fab <sigalrmhandler+0x21>
  401f97:	bf dc 33 40 00       	mov    $0x4033dc,%edi
  401f9c:	e8 3f ed ff ff       	callq  400ce0 <puts@plt>
  401fa1:	b8 00 00 00 00       	mov    $0x0,%eax
  401fa6:	e8 80 fb ff ff       	callq  401b2b <check_fail>
  401fab:	ba 05 00 00 00       	mov    $0x5,%edx
  401fb0:	be 78 35 40 00       	mov    $0x403578,%esi
  401fb5:	bf 01 00 00 00       	mov    $0x1,%edi
  401fba:	b8 00 00 00 00       	mov    $0x0,%eax
  401fbf:	e8 5c ee ff ff       	callq  400e20 <__printf_chk@plt>
  401fc4:	be 00 00 00 00       	mov    $0x0,%esi
  401fc9:	bf 00 00 00 00       	mov    $0x0,%edi
  401fce:	e8 df fb ff ff       	callq  401bb2 <notify_server>
  401fd3:	bf 01 00 00 00       	mov    $0x1,%edi
  401fd8:	e8 93 ee ff ff       	callq  400e70 <exit@plt>

0000000000401fdd <launch>:
  401fdd:	55                   	push   %rbp
  401fde:	48 89 e5             	mov    %rsp,%rbp
  401fe1:	48 83 ec 10          	sub    $0x10,%rsp
  401fe5:	48 89 fa             	mov    %rdi,%rdx
  401fe8:	64 48 8b 04 25 28 00 	mov    %fs:0x28,%rax
  401fef:	00 00 
  401ff1:	48 89 45 f8          	mov    %rax,-0x8(%rbp)
  401ff5:	31 c0                	xor    %eax,%eax
  401ff7:	48 8d 47 1e          	lea    0x1e(%rdi),%rax
  401ffb:	48 83 e0 f0          	and    $0xfffffffffffffff0,%rax
  401fff:	48 29 c4             	sub    %rax,%rsp
  402002:	48 8d 7c 24 0f       	lea    0xf(%rsp),%rdi
  402007:	48 83 e7 f0          	and    $0xfffffffffffffff0,%rdi
  40200b:	be f4 00 00 00       	mov    $0xf4,%esi
  402010:	e8 0b ed ff ff       	callq  400d20 <memset@plt>
  402015:	48 8b 05 a4 24 20 00 	mov    0x2024a4(%rip),%rax        # 6044c0 <stdin@@GLIBC_2.2.5>
  40201c:	48 39 05 ed 24 20 00 	cmp    %rax,0x2024ed(%rip)        # 604510 <infile>
  402023:	75 14                	jne    402039 <launch+0x5c>
  402025:	be e4 33 40 00       	mov    $0x4033e4,%esi
  40202a:	bf 01 00 00 00       	mov    $0x1,%edi
  40202f:	b8 00 00 00 00       	mov    $0x0,%eax
  402034:	e8 e7 ed ff ff       	callq  400e20 <__printf_chk@plt>
  402039:	c7 05 d9 24 20 00 00 	movl   $0x0,0x2024d9(%rip)        # 60451c <vlevel>
  402040:	00 00 00 
  402043:	b8 00 00 00 00       	mov    $0x0,%eax
  402048:	e8 40 fa ff ff       	callq  401a8d <test>
  40204d:	83 3d d4 24 20 00 00 	cmpl   $0x0,0x2024d4(%rip)        # 604528 <is_checker>
  402054:	74 14                	je     40206a <launch+0x8d>
  402056:	bf f1 33 40 00       	mov    $0x4033f1,%edi
  40205b:	e8 80 ec ff ff       	callq  400ce0 <puts@plt>
  402060:	b8 00 00 00 00       	mov    $0x0,%eax
  402065:	e8 c1 fa ff ff       	callq  401b2b <check_fail>
  40206a:	bf fc 33 40 00       	mov    $0x4033fc,%edi
  40206f:	e8 6c ec ff ff       	callq  400ce0 <puts@plt>
  402074:	48 8b 45 f8          	mov    -0x8(%rbp),%rax
  402078:	64 48 33 04 25 28 00 	xor    %fs:0x28,%rax
  40207f:	00 00 
  402081:	74 05                	je     402088 <launch+0xab>
  402083:	e8 78 ec ff ff       	callq  400d00 <__stack_chk_fail@plt>
  402088:	c9                   	leaveq 
  402089:	c3                   	retq   

000000000040208a <stable_launch>:
  40208a:	53                   	push   %rbx
  40208b:	48 89 3d 76 24 20 00 	mov    %rdi,0x202476(%rip)        # 604508 <global_offset>
  402092:	41 b9 00 00 00 00    	mov    $0x0,%r9d
  402098:	41 b8 00 00 00 00    	mov    $0x0,%r8d
  40209e:	b9 32 01 00 00       	mov    $0x132,%ecx
  4020a3:	ba 07 00 00 00       	mov    $0x7,%edx
  4020a8:	be 00 00 10 00       	mov    $0x100000,%esi
  4020ad:	bf 00 60 58 55       	mov    $0x55586000,%edi
  4020b2:	e8 59 ec ff ff       	callq  400d10 <mmap@plt>
  4020b7:	48 89 c3             	mov    %rax,%rbx
  4020ba:	48 3d 00 60 58 55    	cmp    $0x55586000,%rax
  4020c0:	74 37                	je     4020f9 <stable_launch+0x6f>
  4020c2:	be 00 00 10 00       	mov    $0x100000,%esi
  4020c7:	48 89 c7             	mov    %rax,%rdi
  4020ca:	e8 41 ed ff ff       	callq  400e10 <munmap@plt>
  4020cf:	b9 00 60 58 55       	mov    $0x55586000,%ecx
  4020d4:	ba b0 35 40 00       	mov    $0x4035b0,%edx
  4020d9:	be 01 00 00 00       	mov    $0x1,%esi
  4020de:	48 8b 3d 03 24 20 00 	mov    0x202403(%rip),%rdi        # 6044e8 <stderr@@GLIBC_2.2.5>
  4020e5:	b8 00 00 00 00       	mov    $0x0,%eax
  4020ea:	e8 a1 ed ff ff       	callq  400e90 <__fprintf_chk@plt>
  4020ef:	bf 01 00 00 00       	mov    $0x1,%edi
  4020f4:	e8 77 ed ff ff       	callq  400e70 <exit@plt>
  4020f9:	48 8d 90 f8 ff 0f 00 	lea    0xffff8(%rax),%rdx
  402100:	48 89 15 49 30 20 00 	mov    %rdx,0x203049(%rip)        # 605150 <stack_top>
  402107:	48 89 e0             	mov    %rsp,%rax
  40210a:	48 89 d4             	mov    %rdx,%rsp
  40210d:	48 89 c2             	mov    %rax,%rdx
  402110:	48 89 15 e9 23 20 00 	mov    %rdx,0x2023e9(%rip)        # 604500 <global_save_stack>
  402117:	48 8b 3d ea 23 20 00 	mov    0x2023ea(%rip),%rdi        # 604508 <global_offset>
  40211e:	e8 ba fe ff ff       	callq  401fdd <launch>
  402123:	48 8b 05 d6 23 20 00 	mov    0x2023d6(%rip),%rax        # 604500 <global_save_stack>
  40212a:	48 89 c4             	mov    %rax,%rsp
  40212d:	be 00 00 10 00       	mov    $0x100000,%esi
  402132:	48 89 df             	mov    %rbx,%rdi
  402135:	e8 d6 ec ff ff       	callq  400e10 <munmap@plt>
  40213a:	5b                   	pop    %rbx
  40213b:	c3                   	retq   
  40213c:	0f 1f 40 00          	nopl   0x0(%rax)

0000000000402140 <rio_readinitb>:
  402140:	89 37                	mov    %esi,(%rdi)
  402142:	c7 47 04 00 00 00 00 	movl   $0x0,0x4(%rdi)
  402149:	48 8d 47 10          	lea    0x10(%rdi),%rax
  40214d:	48 89 47 08          	mov    %rax,0x8(%rdi)
  402151:	c3                   	retq   

0000000000402152 <sigalrm_handler>:
  402152:	48 83 ec 08          	sub    $0x8,%rsp
  402156:	b9 00 00 00 00       	mov    $0x0,%ecx
  40215b:	ba f0 35 40 00       	mov    $0x4035f0,%edx
  402160:	be 01 00 00 00       	mov    $0x1,%esi
  402165:	48 8b 3d 7c 23 20 00 	mov    0x20237c(%rip),%rdi        # 6044e8 <stderr@@GLIBC_2.2.5>
  40216c:	b8 00 00 00 00       	mov    $0x0,%eax
  402171:	e8 1a ed ff ff       	callq  400e90 <__fprintf_chk@plt>
  402176:	bf 01 00 00 00       	mov    $0x1,%edi
  40217b:	e8 f0 ec ff ff       	callq  400e70 <exit@plt>

0000000000402180 <rio_writen>:
  402180:	41 55                	push   %r13
  402182:	41 54                	push   %r12
  402184:	55                   	push   %rbp
  402185:	53                   	push   %rbx
  402186:	48 83 ec 08          	sub    $0x8,%rsp
  40218a:	41 89 fc             	mov    %edi,%r12d
  40218d:	48 89 f5             	mov    %rsi,%rbp
  402190:	49 89 d5             	mov    %rdx,%r13
  402193:	48 89 d3             	mov    %rdx,%rbx
  402196:	eb 28                	jmp    4021c0 <rio_writen+0x40>
  402198:	48 89 da             	mov    %rbx,%rdx
  40219b:	48 89 ee             	mov    %rbp,%rsi
  40219e:	44 89 e7             	mov    %r12d,%edi
  4021a1:	e8 4a eb ff ff       	callq  400cf0 <write@plt>
  4021a6:	48 85 c0             	test   %rax,%rax
  4021a9:	7f 0f                	jg     4021ba <rio_writen+0x3a>
  4021ab:	e8 f0 ea ff ff       	callq  400ca0 <__errno_location@plt>
  4021b0:	83 38 04             	cmpl   $0x4,(%rax)
  4021b3:	75 15                	jne    4021ca <rio_writen+0x4a>
  4021b5:	b8 00 00 00 00       	mov    $0x0,%eax
  4021ba:	48 29 c3             	sub    %rax,%rbx
  4021bd:	48 01 c5             	add    %rax,%rbp
  4021c0:	48 85 db             	test   %rbx,%rbx
  4021c3:	75 d3                	jne    402198 <rio_writen+0x18>
  4021c5:	4c 89 e8             	mov    %r13,%rax
  4021c8:	eb 07                	jmp    4021d1 <rio_writen+0x51>
  4021ca:	48 c7 c0 ff ff ff ff 	mov    $0xffffffffffffffff,%rax
  4021d1:	48 83 c4 08          	add    $0x8,%rsp
  4021d5:	5b                   	pop    %rbx
  4021d6:	5d                   	pop    %rbp
  4021d7:	41 5c                	pop    %r12
  4021d9:	41 5d                	pop    %r13
  4021db:	c3                   	retq   

00000000004021dc <rio_read>:
  4021dc:	41 56                	push   %r14
  4021de:	41 55                	push   %r13
  4021e0:	41 54                	push   %r12
  4021e2:	55                   	push   %rbp
  4021e3:	53                   	push   %rbx
  4021e4:	48 89 fb             	mov    %rdi,%rbx
  4021e7:	49 89 f6             	mov    %rsi,%r14
  4021ea:	49 89 d5             	mov    %rdx,%r13
  4021ed:	4c 8d 67 10          	lea    0x10(%rdi),%r12
  4021f1:	eb 2a                	jmp    40221d <rio_read+0x41>
  4021f3:	8b 3b                	mov    (%rbx),%edi
  4021f5:	ba 00 20 00 00       	mov    $0x2000,%edx
  4021fa:	4c 89 e6             	mov    %r12,%rsi
  4021fd:	e8 4e eb ff ff       	callq  400d50 <read@plt>
  402202:	89 43 04             	mov    %eax,0x4(%rbx)
  402205:	85 c0                	test   %eax,%eax
  402207:	79 0c                	jns    402215 <rio_read+0x39>
  402209:	e8 92 ea ff ff       	callq  400ca0 <__errno_location@plt>
  40220e:	83 38 04             	cmpl   $0x4,(%rax)
  402211:	74 0a                	je     40221d <rio_read+0x41>
  402213:	eb 37                	jmp    40224c <rio_read+0x70>
  402215:	85 c0                	test   %eax,%eax
  402217:	74 3c                	je     402255 <rio_read+0x79>
  402219:	4c 89 63 08          	mov    %r12,0x8(%rbx)
  40221d:	8b 6b 04             	mov    0x4(%rbx),%ebp
  402220:	85 ed                	test   %ebp,%ebp
  402222:	7e cf                	jle    4021f3 <rio_read+0x17>
  402224:	89 e8                	mov    %ebp,%eax
  402226:	4c 39 e8             	cmp    %r13,%rax
  402229:	72 03                	jb     40222e <rio_read+0x52>
  40222b:	44 89 ed             	mov    %r13d,%ebp
  40222e:	4c 63 e5             	movslq %ebp,%r12
  402231:	48 8b 73 08          	mov    0x8(%rbx),%rsi
  402235:	4c 89 e2             	mov    %r12,%rdx
  402238:	4c 89 f7             	mov    %r14,%rdi
  40223b:	e8 80 eb ff ff       	callq  400dc0 <memcpy@plt>
  402240:	4c 01 63 08          	add    %r12,0x8(%rbx)
  402244:	29 6b 04             	sub    %ebp,0x4(%rbx)
  402247:	4c 89 e0             	mov    %r12,%rax
  40224a:	eb 0e                	jmp    40225a <rio_read+0x7e>
  40224c:	48 c7 c0 ff ff ff ff 	mov    $0xffffffffffffffff,%rax
  402253:	eb 05                	jmp    40225a <rio_read+0x7e>
  402255:	b8 00 00 00 00       	mov    $0x0,%eax
  40225a:	5b                   	pop    %rbx
  40225b:	5d                   	pop    %rbp
  40225c:	41 5c                	pop    %r12
  40225e:	41 5d                	pop    %r13
  402260:	41 5e                	pop    %r14
  402262:	c3                   	retq   

0000000000402263 <rio_readlineb>:
  402263:	41 55                	push   %r13
  402265:	41 54                	push   %r12
  402267:	55                   	push   %rbp
  402268:	53                   	push   %rbx
  402269:	48 83 ec 18          	sub    $0x18,%rsp
  40226d:	49 89 fd             	mov    %rdi,%r13
  402270:	48 89 f5             	mov    %rsi,%rbp
  402273:	49 89 d4             	mov    %rdx,%r12
  402276:	bb 01 00 00 00       	mov    $0x1,%ebx
  40227b:	eb 3e                	jmp    4022bb <rio_readlineb+0x58>
  40227d:	ba 01 00 00 00       	mov    $0x1,%edx
  402282:	48 8d 74 24 0f       	lea    0xf(%rsp),%rsi
  402287:	4c 89 ef             	mov    %r13,%rdi
  40228a:	e8 4d ff ff ff       	callq  4021dc <rio_read>
  40228f:	83 f8 01             	cmp    $0x1,%eax
  402292:	75 12                	jne    4022a6 <rio_readlineb+0x43>
  402294:	48 8d 55 01          	lea    0x1(%rbp),%rdx
  402298:	0f b6 44 24 0f       	movzbl 0xf(%rsp),%eax
  40229d:	88 45 00             	mov    %al,0x0(%rbp)
  4022a0:	3c 0a                	cmp    $0xa,%al
  4022a2:	75 10                	jne    4022b4 <rio_readlineb+0x51>
  4022a4:	eb 1c                	jmp    4022c2 <rio_readlineb+0x5f>
  4022a6:	85 c0                	test   %eax,%eax
  4022a8:	75 24                	jne    4022ce <rio_readlineb+0x6b>
  4022aa:	48 83 fb 01          	cmp    $0x1,%rbx
  4022ae:	66 90                	xchg   %ax,%ax
  4022b0:	75 13                	jne    4022c5 <rio_readlineb+0x62>
  4022b2:	eb 23                	jmp    4022d7 <rio_readlineb+0x74>
  4022b4:	48 83 c3 01          	add    $0x1,%rbx
  4022b8:	48 89 d5             	mov    %rdx,%rbp
  4022bb:	4c 39 e3             	cmp    %r12,%rbx
  4022be:	72 bd                	jb     40227d <rio_readlineb+0x1a>
  4022c0:	eb 03                	jmp    4022c5 <rio_readlineb+0x62>
  4022c2:	48 89 d5             	mov    %rdx,%rbp
  4022c5:	c6 45 00 00          	movb   $0x0,0x0(%rbp)
  4022c9:	48 89 d8             	mov    %rbx,%rax
  4022cc:	eb 0e                	jmp    4022dc <rio_readlineb+0x79>
  4022ce:	48 c7 c0 ff ff ff ff 	mov    $0xffffffffffffffff,%rax
  4022d5:	eb 05                	jmp    4022dc <rio_readlineb+0x79>
  4022d7:	b8 00 00 00 00       	mov    $0x0,%eax
  4022dc:	48 83 c4 18          	add    $0x18,%rsp
  4022e0:	5b                   	pop    %rbx
  4022e1:	5d                   	pop    %rbp
  4022e2:	41 5c                	pop    %r12
  4022e4:	41 5d                	pop    %r13
  4022e6:	c3                   	retq   

00000000004022e7 <urlencode>:
  4022e7:	41 54                	push   %r12
  4022e9:	55                   	push   %rbp
  4022ea:	53                   	push   %rbx
  4022eb:	48 83 ec 10          	sub    $0x10,%rsp
  4022ef:	48 89 fb             	mov    %rdi,%rbx
  4022f2:	48 89 f5             	mov    %rsi,%rbp
  4022f5:	64 48 8b 04 25 28 00 	mov    %fs:0x28,%rax
  4022fc:	00 00 
  4022fe:	48 89 44 24 08       	mov    %rax,0x8(%rsp)
  402303:	31 c0                	xor    %eax,%eax
  402305:	48 c7 c1 ff ff ff ff 	mov    $0xffffffffffffffff,%rcx
  40230c:	f2 ae                	repnz scas %es:(%rdi),%al
  40230e:	48 f7 d1             	not    %rcx
  402311:	8d 41 ff             	lea    -0x1(%rcx),%eax
  402314:	e9 aa 00 00 00       	jmpq   4023c3 <urlencode+0xdc>
  402319:	44 0f b6 03          	movzbl (%rbx),%r8d
  40231d:	41 80 f8 2a          	cmp    $0x2a,%r8b
  402321:	0f 94 c2             	sete   %dl
  402324:	41 80 f8 2d          	cmp    $0x2d,%r8b
  402328:	0f 94 c0             	sete   %al
  40232b:	08 c2                	or     %al,%dl
  40232d:	75 24                	jne    402353 <urlencode+0x6c>
  40232f:	41 80 f8 2e          	cmp    $0x2e,%r8b
  402333:	74 1e                	je     402353 <urlencode+0x6c>
  402335:	41 80 f8 5f          	cmp    $0x5f,%r8b
  402339:	74 18                	je     402353 <urlencode+0x6c>
  40233b:	41 8d 40 d0          	lea    -0x30(%r8),%eax
  40233f:	3c 09                	cmp    $0x9,%al
  402341:	76 10                	jbe    402353 <urlencode+0x6c>
  402343:	41 8d 40 bf          	lea    -0x41(%r8),%eax
  402347:	3c 19                	cmp    $0x19,%al
  402349:	76 08                	jbe    402353 <urlencode+0x6c>
  40234b:	41 8d 40 9f          	lea    -0x61(%r8),%eax
  40234f:	3c 19                	cmp    $0x19,%al
  402351:	77 0a                	ja     40235d <urlencode+0x76>
  402353:	44 88 45 00          	mov    %r8b,0x0(%rbp)
  402357:	48 8d 6d 01          	lea    0x1(%rbp),%rbp
  40235b:	eb 5f                	jmp    4023bc <urlencode+0xd5>
  40235d:	41 80 f8 20          	cmp    $0x20,%r8b
  402361:	75 0a                	jne    40236d <urlencode+0x86>
  402363:	c6 45 00 2b          	movb   $0x2b,0x0(%rbp)
  402367:	48 8d 6d 01          	lea    0x1(%rbp),%rbp
  40236b:	eb 4f                	jmp    4023bc <urlencode+0xd5>
  40236d:	41 8d 40 e0          	lea    -0x20(%r8),%eax
  402371:	3c 5f                	cmp    $0x5f,%al
  402373:	0f 96 c2             	setbe  %dl
  402376:	41 80 f8 09          	cmp    $0x9,%r8b
  40237a:	0f 94 c0             	sete   %al
  40237d:	08 c2                	or     %al,%dl
  40237f:	74 50                	je     4023d1 <urlencode+0xea>
  402381:	45 0f b6 c0          	movzbl %r8b,%r8d
  402385:	b9 88 36 40 00       	mov    $0x403688,%ecx
  40238a:	ba 08 00 00 00       	mov    $0x8,%edx
  40238f:	be 01 00 00 00       	mov    $0x1,%esi
  402394:	48 89 e7             	mov    %rsp,%rdi
  402397:	b8 00 00 00 00       	mov    $0x0,%eax
  40239c:	e8 ff ea ff ff       	callq  400ea0 <__sprintf_chk@plt>
  4023a1:	0f b6 04 24          	movzbl (%rsp),%eax
  4023a5:	88 45 00             	mov    %al,0x0(%rbp)
  4023a8:	0f b6 44 24 01       	movzbl 0x1(%rsp),%eax
  4023ad:	88 45 01             	mov    %al,0x1(%rbp)
  4023b0:	0f b6 44 24 02       	movzbl 0x2(%rsp),%eax
  4023b5:	88 45 02             	mov    %al,0x2(%rbp)
  4023b8:	48 8d 6d 03          	lea    0x3(%rbp),%rbp
  4023bc:	48 83 c3 01          	add    $0x1,%rbx
  4023c0:	44 89 e0             	mov    %r12d,%eax
  4023c3:	44 8d 60 ff          	lea    -0x1(%rax),%r12d
  4023c7:	85 c0                	test   %eax,%eax
  4023c9:	0f 85 4a ff ff ff    	jne    402319 <urlencode+0x32>
  4023cf:	eb 05                	jmp    4023d6 <urlencode+0xef>
  4023d1:	b8 ff ff ff ff       	mov    $0xffffffff,%eax
  4023d6:	48 8b 74 24 08       	mov    0x8(%rsp),%rsi
  4023db:	64 48 33 34 25 28 00 	xor    %fs:0x28,%rsi
  4023e2:	00 00 
  4023e4:	74 05                	je     4023eb <urlencode+0x104>
  4023e6:	e8 15 e9 ff ff       	callq  400d00 <__stack_chk_fail@plt>
  4023eb:	48 83 c4 10          	add    $0x10,%rsp
  4023ef:	5b                   	pop    %rbx
  4023f0:	5d                   	pop    %rbp
  4023f1:	41 5c                	pop    %r12
  4023f3:	c3                   	retq   

00000000004023f4 <submitr>:
  4023f4:	41 57                	push   %r15
  4023f6:	41 56                	push   %r14
  4023f8:	41 55                	push   %r13
  4023fa:	41 54                	push   %r12
  4023fc:	55                   	push   %rbp
  4023fd:	53                   	push   %rbx
  4023fe:	48 81 ec 68 a0 00 00 	sub    $0xa068,%rsp
  402405:	49 89 fc             	mov    %rdi,%r12
  402408:	89 74 24 14          	mov    %esi,0x14(%rsp)
  40240c:	49 89 d7             	mov    %rdx,%r15
  40240f:	49 89 ce             	mov    %rcx,%r14
  402412:	4c 89 44 24 18       	mov    %r8,0x18(%rsp)
  402417:	4d 89 cd             	mov    %r9,%r13
  40241a:	48 8b 9c 24 a0 a0 00 	mov    0xa0a0(%rsp),%rbx
  402421:	00 
  402422:	64 48 8b 04 25 28 00 	mov    %fs:0x28,%rax
  402429:	00 00 
  40242b:	48 89 84 24 58 a0 00 	mov    %rax,0xa058(%rsp)
  402432:	00 
  402433:	31 c0                	xor    %eax,%eax
  402435:	c7 44 24 2c 00 00 00 	movl   $0x0,0x2c(%rsp)
  40243c:	00 
  40243d:	ba 00 00 00 00       	mov    $0x0,%edx
  402442:	be 01 00 00 00       	mov    $0x1,%esi
  402447:	bf 02 00 00 00       	mov    $0x2,%edi
  40244c:	e8 5f ea ff ff       	callq  400eb0 <socket@plt>
  402451:	89 c5                	mov    %eax,%ebp
  402453:	85 c0                	test   %eax,%eax
  402455:	79 4e                	jns    4024a5 <submitr+0xb1>
  402457:	48 b8 45 72 72 6f 72 	movabs $0x43203a726f727245,%rax
  40245e:	3a 20 43 
  402461:	48 89 03             	mov    %rax,(%rbx)
  402464:	48 b8 6c 69 65 6e 74 	movabs $0x6e7520746e65696c,%rax
  40246b:	20 75 6e 
  40246e:	48 89 43 08          	mov    %rax,0x8(%rbx)
  402472:	48 b8 61 62 6c 65 20 	movabs $0x206f7420656c6261,%rax
  402479:	74 6f 20 
  40247c:	48 89 43 10          	mov    %rax,0x10(%rbx)
  402480:	48 b8 63 72 65 61 74 	movabs $0x7320657461657263,%rax
  402487:	65 20 73 
  40248a:	48 89 43 18          	mov    %rax,0x18(%rbx)
  40248e:	c7 43 20 6f 63 6b 65 	movl   $0x656b636f,0x20(%rbx)
  402495:	66 c7 43 24 74 00    	movw   $0x74,0x24(%rbx)
  40249b:	b8 ff ff ff ff       	mov    $0xffffffff,%eax
  4024a0:	e9 84 06 00 00       	jmpq   402b29 <submitr+0x735>
  4024a5:	4c 89 e7             	mov    %r12,%rdi
  4024a8:	e8 d3 e8 ff ff       	callq  400d80 <gethostbyname@plt>
  4024ad:	48 85 c0             	test   %rax,%rax
  4024b0:	75 67                	jne    402519 <submitr+0x125>
  4024b2:	48 b8 45 72 72 6f 72 	movabs $0x44203a726f727245,%rax
  4024b9:	3a 20 44 
  4024bc:	48 89 03             	mov    %rax,(%rbx)
  4024bf:	48 b8 4e 53 20 69 73 	movabs $0x6e7520736920534e,%rax
  4024c6:	20 75 6e 
  4024c9:	48 89 43 08          	mov    %rax,0x8(%rbx)
  4024cd:	48 b8 61 62 6c 65 20 	movabs $0x206f7420656c6261,%rax
  4024d4:	74 6f 20 
  4024d7:	48 89 43 10          	mov    %rax,0x10(%rbx)
  4024db:	48 b8 72 65 73 6f 6c 	movabs $0x2065766c6f736572,%rax
  4024e2:	76 65 20 
  4024e5:	48 89 43 18          	mov    %rax,0x18(%rbx)
  4024e9:	48 b8 73 65 72 76 65 	movabs $0x6120726576726573,%rax
  4024f0:	72 20 61 
  4024f3:	48 89 43 20          	mov    %rax,0x20(%rbx)
  4024f7:	c7 43 28 64 64 72 65 	movl   $0x65726464,0x28(%rbx)
  4024fe:	66 c7 43 2c 73 73    	movw   $0x7373,0x2c(%rbx)
  402504:	c6 43 2e 00          	movb   $0x0,0x2e(%rbx)
  402508:	89 ef                	mov    %ebp,%edi
  40250a:	e8 31 e8 ff ff       	callq  400d40 <close@plt>
  40250f:	b8 ff ff ff ff       	mov    $0xffffffff,%eax
  402514:	e9 10 06 00 00       	jmpq   402b29 <submitr+0x735>
  402519:	48 c7 44 24 30 00 00 	movq   $0x0,0x30(%rsp)
  402520:	00 00 
  402522:	48 c7 44 24 38 00 00 	movq   $0x0,0x38(%rsp)
  402529:	00 00 
  40252b:	66 c7 44 24 30 02 00 	movw   $0x2,0x30(%rsp)
  402532:	48 63 50 14          	movslq 0x14(%rax),%rdx
  402536:	48 8b 40 18          	mov    0x18(%rax),%rax
  40253a:	48 8b 30             	mov    (%rax),%rsi
  40253d:	48 8d 7c 24 34       	lea    0x34(%rsp),%rdi
  402542:	b9 0c 00 00 00       	mov    $0xc,%ecx
  402547:	e8 44 e8 ff ff       	callq  400d90 <__memmove_chk@plt>
  40254c:	0f b7 44 24 14       	movzwl 0x14(%rsp),%eax
  402551:	66 c1 c8 08          	ror    $0x8,%ax
  402555:	66 89 44 24 32       	mov    %ax,0x32(%rsp)
  40255a:	ba 10 00 00 00       	mov    $0x10,%edx
  40255f:	48 8d 74 24 30       	lea    0x30(%rsp),%rsi
  402564:	89 ef                	mov    %ebp,%edi
  402566:	e8 15 e9 ff ff       	callq  400e80 <connect@plt>
  40256b:	85 c0                	test   %eax,%eax
  40256d:	79 59                	jns    4025c8 <submitr+0x1d4>
  40256f:	48 b8 45 72 72 6f 72 	movabs $0x55203a726f727245,%rax
  402576:	3a 20 55 
  402579:	48 89 03             	mov    %rax,(%rbx)
  40257c:	48 b8 6e 61 62 6c 65 	movabs $0x6f7420656c62616e,%rax
  402583:	20 74 6f 
  402586:	48 89 43 08          	mov    %rax,0x8(%rbx)
  40258a:	48 b8 20 63 6f 6e 6e 	movabs $0x7463656e6e6f6320,%rax
  402591:	65 63 74 
  402594:	48 89 43 10          	mov    %rax,0x10(%rbx)
  402598:	48 b8 20 74 6f 20 74 	movabs $0x20656874206f7420,%rax
  40259f:	68 65 20 
  4025a2:	48 89 43 18          	mov    %rax,0x18(%rbx)
  4025a6:	c7 43 20 73 65 72 76 	movl   $0x76726573,0x20(%rbx)
  4025ad:	66 c7 43 24 65 72    	movw   $0x7265,0x24(%rbx)
  4025b3:	c6 43 26 00          	movb   $0x0,0x26(%rbx)
  4025b7:	89 ef                	mov    %ebp,%edi
  4025b9:	e8 82 e7 ff ff       	callq  400d40 <close@plt>
  4025be:	b8 ff ff ff ff       	mov    $0xffffffff,%eax
  4025c3:	e9 61 05 00 00       	jmpq   402b29 <submitr+0x735>
  4025c8:	48 c7 c2 ff ff ff ff 	mov    $0xffffffffffffffff,%rdx
  4025cf:	4c 89 ef             	mov    %r13,%rdi
  4025d2:	b8 00 00 00 00       	mov    $0x0,%eax
  4025d7:	48 89 d1             	mov    %rdx,%rcx
  4025da:	f2 ae                	repnz scas %es:(%rdi),%al
  4025dc:	48 f7 d1             	not    %rcx
  4025df:	48 89 ce             	mov    %rcx,%rsi
  4025e2:	4c 89 ff             	mov    %r15,%rdi
  4025e5:	48 89 d1             	mov    %rdx,%rcx
  4025e8:	f2 ae                	repnz scas %es:(%rdi),%al
  4025ea:	48 f7 d1             	not    %rcx
  4025ed:	49 89 c8             	mov    %rcx,%r8
  4025f0:	4c 89 f7             	mov    %r14,%rdi
  4025f3:	48 89 d1             	mov    %rdx,%rcx
  4025f6:	f2 ae                	repnz scas %es:(%rdi),%al
  4025f8:	49 29 c8             	sub    %rcx,%r8
  4025fb:	48 8b 7c 24 18       	mov    0x18(%rsp),%rdi
  402600:	48 89 d1             	mov    %rdx,%rcx
  402603:	f2 ae                	repnz scas %es:(%rdi),%al
  402605:	49 29 c8             	sub    %rcx,%r8
  402608:	48 8d 44 76 fd       	lea    -0x3(%rsi,%rsi,2),%rax
  40260d:	49 8d 44 00 7b       	lea    0x7b(%r8,%rax,1),%rax
  402612:	48 3d 00 20 00 00    	cmp    $0x2000,%rax
  402618:	76 72                	jbe    40268c <submitr+0x298>
  40261a:	48 b8 45 72 72 6f 72 	movabs $0x52203a726f727245,%rax
  402621:	3a 20 52 
  402624:	48 89 03             	mov    %rax,(%rbx)
  402627:	48 b8 65 73 75 6c 74 	movabs $0x747320746c757365,%rax
  40262e:	20 73 74 
  402631:	48 89 43 08          	mov    %rax,0x8(%rbx)
  402635:	48 b8 72 69 6e 67 20 	movabs $0x6f6f7420676e6972,%rax
  40263c:	74 6f 6f 
  40263f:	48 89 43 10          	mov    %rax,0x10(%rbx)
  402643:	48 b8 20 6c 61 72 67 	movabs $0x202e656772616c20,%rax
  40264a:	65 2e 20 
  40264d:	48 89 43 18          	mov    %rax,0x18(%rbx)
  402651:	48 b8 49 6e 63 72 65 	movabs $0x6573616572636e49,%rax
  402658:	61 73 65 
  40265b:	48 89 43 20          	mov    %rax,0x20(%rbx)
  40265f:	48 b8 20 53 55 42 4d 	movabs $0x5254494d42555320,%rax
  402666:	49 54 52 
  402669:	48 89 43 28          	mov    %rax,0x28(%rbx)
  40266d:	48 b8 5f 4d 41 58 42 	movabs $0x46554258414d5f,%rax
  402674:	55 46 00 
  402677:	48 89 43 30          	mov    %rax,0x30(%rbx)
  40267b:	89 ef                	mov    %ebp,%edi
  40267d:	e8 be e6 ff ff       	callq  400d40 <close@plt>
  402682:	b8 ff ff ff ff       	mov    $0xffffffff,%eax
  402687:	e9 9d 04 00 00       	jmpq   402b29 <submitr+0x735>
  40268c:	48 8d b4 24 40 20 00 	lea    0x2040(%rsp),%rsi
  402693:	00 
  402694:	b9 00 04 00 00       	mov    $0x400,%ecx
  402699:	b8 00 00 00 00       	mov    $0x0,%eax
  40269e:	48 89 f7             	mov    %rsi,%rdi
  4026a1:	f3 48 ab             	rep stos %rax,%es:(%rdi)
  4026a4:	4c 89 ef             	mov    %r13,%rdi
  4026a7:	e8 3b fc ff ff       	callq  4022e7 <urlencode>
  4026ac:	85 c0                	test   %eax,%eax
  4026ae:	0f 89 8a 00 00 00    	jns    40273e <submitr+0x34a>
  4026b4:	48 b8 45 72 72 6f 72 	movabs $0x52203a726f727245,%rax
  4026bb:	3a 20 52 
  4026be:	48 89 03             	mov    %rax,(%rbx)
  4026c1:	48 b8 65 73 75 6c 74 	movabs $0x747320746c757365,%rax
  4026c8:	20 73 74 
  4026cb:	48 89 43 08          	mov    %rax,0x8(%rbx)
  4026cf:	48 b8 72 69 6e 67 20 	movabs $0x6e6f6320676e6972,%rax
  4026d6:	63 6f 6e 
  4026d9:	48 89 43 10          	mov    %rax,0x10(%rbx)
  4026dd:	48 b8 74 61 69 6e 73 	movabs $0x6e6120736e696174,%rax
  4026e4:	20 61 6e 
  4026e7:	48 89 43 18          	mov    %rax,0x18(%rbx)
  4026eb:	48 b8 20 69 6c 6c 65 	movabs $0x6c6167656c6c6920,%rax
  4026f2:	67 61 6c 
  4026f5:	48 89 43 20          	mov    %rax,0x20(%rbx)
  4026f9:	48 b8 20 6f 72 20 75 	movabs $0x72706e7520726f20,%rax
  402700:	6e 70 72 
  402703:	48 89 43 28          	mov    %rax,0x28(%rbx)
  402707:	48 b8 69 6e 74 61 62 	movabs $0x20656c6261746e69,%rax
  40270e:	6c 65 20 
  402711:	48 89 43 30          	mov    %rax,0x30(%rbx)
  402715:	48 b8 63 68 61 72 61 	movabs $0x6574636172616863,%rax
  40271c:	63 74 65 
  40271f:	48 89 43 38          	mov    %rax,0x38(%rbx)
  402723:	66 c7 43 40 72 2e    	movw   $0x2e72,0x40(%rbx)
  402729:	c6 43 42 00          	movb   $0x0,0x42(%rbx)
  40272d:	89 ef                	mov    %ebp,%edi
  40272f:	e8 0c e6 ff ff       	callq  400d40 <close@plt>
  402734:	b8 ff ff ff ff       	mov    $0xffffffff,%eax
  402739:	e9 eb 03 00 00       	jmpq   402b29 <submitr+0x735>
  40273e:	4c 89 64 24 08       	mov    %r12,0x8(%rsp)
  402743:	48 8d 84 24 40 20 00 	lea    0x2040(%rsp),%rax
  40274a:	00 
  40274b:	48 89 04 24          	mov    %rax,(%rsp)
  40274f:	4d 89 f9             	mov    %r15,%r9
  402752:	4d 89 f0             	mov    %r14,%r8
  402755:	b9 18 36 40 00       	mov    $0x403618,%ecx
  40275a:	ba 00 20 00 00       	mov    $0x2000,%edx
  40275f:	be 01 00 00 00       	mov    $0x1,%esi
  402764:	48 8d 7c 24 40       	lea    0x40(%rsp),%rdi
  402769:	b8 00 00 00 00       	mov    $0x0,%eax
  40276e:	e8 2d e7 ff ff       	callq  400ea0 <__sprintf_chk@plt>
  402773:	48 8d 7c 24 40       	lea    0x40(%rsp),%rdi
  402778:	b8 00 00 00 00       	mov    $0x0,%eax
  40277d:	48 c7 c1 ff ff ff ff 	mov    $0xffffffffffffffff,%rcx
  402784:	f2 ae                	repnz scas %es:(%rdi),%al
  402786:	48 f7 d1             	not    %rcx
  402789:	48 8d 51 ff          	lea    -0x1(%rcx),%rdx
  40278d:	48 8d 74 24 40       	lea    0x40(%rsp),%rsi
  402792:	89 ef                	mov    %ebp,%edi
  402794:	e8 e7 f9 ff ff       	callq  402180 <rio_writen>
  402799:	48 85 c0             	test   %rax,%rax
  40279c:	79 6e                	jns    40280c <submitr+0x418>
  40279e:	48 b8 45 72 72 6f 72 	movabs $0x43203a726f727245,%rax
  4027a5:	3a 20 43 
  4027a8:	48 89 03             	mov    %rax,(%rbx)
  4027ab:	48 b8 6c 69 65 6e 74 	movabs $0x6e7520746e65696c,%rax
  4027b2:	20 75 6e 
  4027b5:	48 89 43 08          	mov    %rax,0x8(%rbx)
  4027b9:	48 b8 61 62 6c 65 20 	movabs $0x206f7420656c6261,%rax
  4027c0:	74 6f 20 
  4027c3:	48 89 43 10          	mov    %rax,0x10(%rbx)
  4027c7:	48 b8 77 72 69 74 65 	movabs $0x6f74206574697277,%rax
  4027ce:	20 74 6f 
  4027d1:	48 89 43 18          	mov    %rax,0x18(%rbx)
  4027d5:	48 b8 20 74 68 65 20 	movabs $0x7365722065687420,%rax
  4027dc:	72 65 73 
  4027df:	48 89 43 20          	mov    %rax,0x20(%rbx)
  4027e3:	48 b8 75 6c 74 20 73 	movabs $0x7672657320746c75,%rax
  4027ea:	65 72 76 
  4027ed:	48 89 43 28          	mov    %rax,0x28(%rbx)
  4027f1:	66 c7 43 30 65 72    	movw   $0x7265,0x30(%rbx)
  4027f7:	c6 43 32 00          	movb   $0x0,0x32(%rbx)
  4027fb:	89 ef                	mov    %ebp,%edi
  4027fd:	e8 3e e5 ff ff       	callq  400d40 <close@plt>
  402802:	b8 ff ff ff ff       	mov    $0xffffffff,%eax
  402807:	e9 1d 03 00 00       	jmpq   402b29 <submitr+0x735>
  40280c:	89 ee                	mov    %ebp,%esi
  40280e:	48 8d bc 24 40 80 00 	lea    0x8040(%rsp),%rdi
  402815:	00 
  402816:	e8 25 f9 ff ff       	callq  402140 <rio_readinitb>
  40281b:	ba 00 20 00 00       	mov    $0x2000,%edx
  402820:	48 8d 74 24 40       	lea    0x40(%rsp),%rsi
  402825:	48 8d bc 24 40 80 00 	lea    0x8040(%rsp),%rdi
  40282c:	00 
  40282d:	e8 31 fa ff ff       	callq  402263 <rio_readlineb>
  402832:	48 85 c0             	test   %rax,%rax
  402835:	7f 7d                	jg     4028b4 <submitr+0x4c0>
  402837:	48 b8 45 72 72 6f 72 	movabs $0x43203a726f727245,%rax
  40283e:	3a 20 43 
  402841:	48 89 03             	mov    %rax,(%rbx)
  402844:	48 b8 6c 69 65 6e 74 	movabs $0x6e7520746e65696c,%rax
  40284b:	20 75 6e 
  40284e:	48 89 43 08          	mov    %rax,0x8(%rbx)
  402852:	48 b8 61 62 6c 65 20 	movabs $0x206f7420656c6261,%rax
  402859:	74 6f 20 
  40285c:	48 89 43 10          	mov    %rax,0x10(%rbx)
  402860:	48 b8 72 65 61 64 20 	movabs $0x7269662064616572,%rax
  402867:	66 69 72 
  40286a:	48 89 43 18          	mov    %rax,0x18(%rbx)
  40286e:	48 b8 73 74 20 68 65 	movabs $0x6564616568207473,%rax
  402875:	61 64 65 
  402878:	48 89 43 20          	mov    %rax,0x20(%rbx)
  40287c:	48 b8 72 20 66 72 6f 	movabs $0x72206d6f72662072,%rax
  402883:	6d 20 72 
  402886:	48 89 43 28          	mov    %rax,0x28(%rbx)
  40288a:	48 b8 65 73 75 6c 74 	movabs $0x657320746c757365,%rax
  402891:	20 73 65 
  402894:	48 89 43 30          	mov    %rax,0x30(%rbx)
  402898:	c7 43 38 72 76 65 72 	movl   $0x72657672,0x38(%rbx)
  40289f:	c6 43 3c 00          	movb   $0x0,0x3c(%rbx)
  4028a3:	89 ef                	mov    %ebp,%edi
  4028a5:	e8 96 e4 ff ff       	callq  400d40 <close@plt>
  4028aa:	b8 ff ff ff ff       	mov    $0xffffffff,%eax
  4028af:	e9 75 02 00 00       	jmpq   402b29 <submitr+0x735>
  4028b4:	4c 8d 84 24 40 60 00 	lea    0x6040(%rsp),%r8
  4028bb:	00 
  4028bc:	48 8d 4c 24 2c       	lea    0x2c(%rsp),%rcx
  4028c1:	48 8d 94 24 40 40 00 	lea    0x4040(%rsp),%rdx
  4028c8:	00 
  4028c9:	be 8f 36 40 00       	mov    $0x40368f,%esi
  4028ce:	48 8d 7c 24 40       	lea    0x40(%rsp),%rdi
  4028d3:	b8 00 00 00 00       	mov    $0x0,%eax
  4028d8:	e8 23 e5 ff ff       	callq  400e00 <__isoc99_sscanf@plt>
  4028dd:	41 bc 0d 00 00 00    	mov    $0xd,%r12d
  4028e3:	41 bd 0a 00 00 00    	mov    $0xa,%r13d
  4028e9:	e9 95 00 00 00       	jmpq   402983 <submitr+0x58f>
  4028ee:	ba 00 20 00 00       	mov    $0x2000,%edx
  4028f3:	48 8d 74 24 40       	lea    0x40(%rsp),%rsi
  4028f8:	48 8d bc 24 40 80 00 	lea    0x8040(%rsp),%rdi
  4028ff:	00 
  402900:	e8 5e f9 ff ff       	callq  402263 <rio_readlineb>
  402905:	48 85 c0             	test   %rax,%rax
  402908:	7f 79                	jg     402983 <submitr+0x58f>
  40290a:	48 b8 45 72 72 6f 72 	movabs $0x43203a726f727245,%rax
  402911:	3a 20 43 
  402914:	48 89 03             	mov    %rax,(%rbx)
  402917:	48 b8 6c 69 65 6e 74 	movabs $0x6e7520746e65696c,%rax
  40291e:	20 75 6e 
  402921:	48 89 43 08          	mov    %rax,0x8(%rbx)
  402925:	48 b8 61 62 6c 65 20 	movabs $0x206f7420656c6261,%rax
  40292c:	74 6f 20 
  40292f:	48 89 43 10          	mov    %rax,0x10(%rbx)
  402933:	48 b8 72 65 61 64 20 	movabs $0x6165682064616572,%rax
  40293a:	68 65 61 
  40293d:	48 89 43 18          	mov    %rax,0x18(%rbx)
  402941:	48 b8 64 65 72 73 20 	movabs $0x6f72662073726564,%rax
  402948:	66 72 6f 
  40294b:	48 89 43 20          	mov    %rax,0x20(%rbx)
  40294f:	48 b8 6d 20 74 68 65 	movabs $0x657220656874206d,%rax
  402956:	20 72 65 
  402959:	48 89 43 28          	mov    %rax,0x28(%rbx)
  40295d:	48 b8 73 75 6c 74 20 	movabs $0x72657320746c7573,%rax
  402964:	73 65 72 
  402967:	48 89 43 30          	mov    %rax,0x30(%rbx)
  40296b:	c7 43 38 76 65 72 00 	movl   $0x726576,0x38(%rbx)
  402972:	89 ef                	mov    %ebp,%edi
  402974:	e8 c7 e3 ff ff       	callq  400d40 <close@plt>
  402979:	b8 ff ff ff ff       	mov    $0xffffffff,%eax
  40297e:	e9 a6 01 00 00       	jmpq   402b29 <submitr+0x735>
  402983:	0f b6 44 24 40       	movzbl 0x40(%rsp),%eax
  402988:	44 89 e6             	mov    %r12d,%esi
  40298b:	29 c6                	sub    %eax,%esi
  40298d:	89 f0                	mov    %esi,%eax
  40298f:	75 15                	jne    4029a6 <submitr+0x5b2>
  402991:	0f b6 44 24 41       	movzbl 0x41(%rsp),%eax
  402996:	44 89 ea             	mov    %r13d,%edx
  402999:	29 c2                	sub    %eax,%edx
  40299b:	89 d0                	mov    %edx,%eax
  40299d:	75 07                	jne    4029a6 <submitr+0x5b2>
  40299f:	0f b6 44 24 42       	movzbl 0x42(%rsp),%eax
  4029a4:	f7 d8                	neg    %eax
  4029a6:	85 c0                	test   %eax,%eax
  4029a8:	0f 85 40 ff ff ff    	jne    4028ee <submitr+0x4fa>
  4029ae:	ba 00 20 00 00       	mov    $0x2000,%edx
  4029b3:	48 8d 74 24 40       	lea    0x40(%rsp),%rsi
  4029b8:	48 8d bc 24 40 80 00 	lea    0x8040(%rsp),%rdi
  4029bf:	00 
  4029c0:	e8 9e f8 ff ff       	callq  402263 <rio_readlineb>
  4029c5:	48 85 c0             	test   %rax,%rax
  4029c8:	0f 8f 83 00 00 00    	jg     402a51 <submitr+0x65d>
  4029ce:	48 b8 45 72 72 6f 72 	movabs $0x43203a726f727245,%rax
  4029d5:	3a 20 43 
  4029d8:	48 89 03             	mov    %rax,(%rbx)
  4029db:	48 b8 6c 69 65 6e 74 	movabs $0x6e7520746e65696c,%rax
  4029e2:	20 75 6e 
  4029e5:	48 89 43 08          	mov    %rax,0x8(%rbx)
  4029e9:	48 b8 61 62 6c 65 20 	movabs $0x206f7420656c6261,%rax
  4029f0:	74 6f 20 
  4029f3:	48 89 43 10          	mov    %rax,0x10(%rbx)
  4029f7:	48 b8 72 65 61 64 20 	movabs $0x6174732064616572,%rax
  4029fe:	73 74 61 
  402a01:	48 89 43 18          	mov    %rax,0x18(%rbx)
  402a05:	48 b8 74 75 73 20 6d 	movabs $0x7373656d20737574,%rax
  402a0c:	65 73 73 
  402a0f:	48 89 43 20          	mov    %rax,0x20(%rbx)
  402a13:	48 b8 61 67 65 20 66 	movabs $0x6d6f726620656761,%rax
  402a1a:	72 6f 6d 
  402a1d:	48 89 43 28          	mov    %rax,0x28(%rbx)
  402a21:	48 b8 20 72 65 73 75 	movabs $0x20746c7573657220,%rax
  402a28:	6c 74 20 
  402a2b:	48 89 43 30          	mov    %rax,0x30(%rbx)
  402a2f:	c7 43 38 73 65 72 76 	movl   $0x76726573,0x38(%rbx)
  402a36:	66 c7 43 3c 65 72    	movw   $0x7265,0x3c(%rbx)
  402a3c:	c6 43 3e 00          	movb   $0x0,0x3e(%rbx)
  402a40:	89 ef                	mov    %ebp,%edi
  402a42:	e8 f9 e2 ff ff       	callq  400d40 <close@plt>
  402a47:	b8 ff ff ff ff       	mov    $0xffffffff,%eax
  402a4c:	e9 d8 00 00 00       	jmpq   402b29 <submitr+0x735>
  402a51:	44 8b 44 24 2c       	mov    0x2c(%rsp),%r8d
  402a56:	41 81 f8 c8 00 00 00 	cmp    $0xc8,%r8d
  402a5d:	74 37                	je     402a96 <submitr+0x6a2>
  402a5f:	4c 8d 8c 24 40 60 00 	lea    0x6040(%rsp),%r9
  402a66:	00 
  402a67:	b9 58 36 40 00       	mov    $0x403658,%ecx
  402a6c:	48 c7 c2 ff ff ff ff 	mov    $0xffffffffffffffff,%rdx
  402a73:	be 01 00 00 00       	mov    $0x1,%esi
  402a78:	48 89 df             	mov    %rbx,%rdi
  402a7b:	b8 00 00 00 00       	mov    $0x0,%eax
  402a80:	e8 1b e4 ff ff       	callq  400ea0 <__sprintf_chk@plt>
  402a85:	89 ef                	mov    %ebp,%edi
  402a87:	e8 b4 e2 ff ff       	callq  400d40 <close@plt>
  402a8c:	b8 ff ff ff ff       	mov    $0xffffffff,%eax
  402a91:	e9 93 00 00 00       	jmpq   402b29 <submitr+0x735>
  402a96:	48 8d 74 24 40       	lea    0x40(%rsp),%rsi
  402a9b:	48 89 df             	mov    %rbx,%rdi
  402a9e:	e8 2d e2 ff ff       	callq  400cd0 <strcpy@plt>
  402aa3:	89 ef                	mov    %ebp,%edi
  402aa5:	e8 96 e2 ff ff       	callq  400d40 <close@plt>
  402aaa:	0f b6 03             	movzbl (%rbx),%eax
  402aad:	ba 4f 00 00 00       	mov    $0x4f,%edx
  402ab2:	29 c2                	sub    %eax,%edx
  402ab4:	75 22                	jne    402ad8 <submitr+0x6e4>
  402ab6:	0f b6 4b 01          	movzbl 0x1(%rbx),%ecx
  402aba:	b8 4b 00 00 00       	mov    $0x4b,%eax
  402abf:	29 c8                	sub    %ecx,%eax
  402ac1:	75 17                	jne    402ada <submitr+0x6e6>
  402ac3:	0f b6 4b 02          	movzbl 0x2(%rbx),%ecx
  402ac7:	b8 0a 00 00 00       	mov    $0xa,%eax
  402acc:	29 c8                	sub    %ecx,%eax
  402ace:	75 0a                	jne    402ada <submitr+0x6e6>
  402ad0:	0f b6 43 03          	movzbl 0x3(%rbx),%eax
  402ad4:	f7 d8                	neg    %eax
  402ad6:	eb 02                	jmp    402ada <submitr+0x6e6>
  402ad8:	89 d0                	mov    %edx,%eax
  402ada:	85 c0                	test   %eax,%eax
  402adc:	74 38                	je     402b16 <submitr+0x722>
  402ade:	bf a0 36 40 00       	mov    $0x4036a0,%edi
  402ae3:	b9 05 00 00 00       	mov    $0x5,%ecx
  402ae8:	48 89 de             	mov    %rbx,%rsi
  402aeb:	f3 a6                	repz cmpsb %es:(%rdi),%ds:(%rsi)
  402aed:	0f 97 c1             	seta   %cl
  402af0:	0f 92 c0             	setb   %al
  402af3:	38 c1                	cmp    %al,%cl
  402af5:	74 26                	je     402b1d <submitr+0x729>
  402af7:	85 d2                	test   %edx,%edx
  402af9:	75 10                	jne    402b0b <submitr+0x717>
  402afb:	0f b6 43 01          	movzbl 0x1(%rbx),%eax
  402aff:	b2 4b                	mov    $0x4b,%dl
  402b01:	29 c2                	sub    %eax,%edx
  402b03:	75 06                	jne    402b0b <submitr+0x717>
  402b05:	0f b6 53 02          	movzbl 0x2(%rbx),%edx
  402b09:	f7 da                	neg    %edx
  402b0b:	85 d2                	test   %edx,%edx
  402b0d:	75 15                	jne    402b24 <submitr+0x730>
  402b0f:	b8 00 00 00 00       	mov    $0x0,%eax
  402b14:	eb 13                	jmp    402b29 <submitr+0x735>
  402b16:	b8 00 00 00 00       	mov    $0x0,%eax
  402b1b:	eb 0c                	jmp    402b29 <submitr+0x735>
  402b1d:	b8 00 00 00 00       	mov    $0x0,%eax
  402b22:	eb 05                	jmp    402b29 <submitr+0x735>
  402b24:	b8 ff ff ff ff       	mov    $0xffffffff,%eax
  402b29:	48 8b 9c 24 58 a0 00 	mov    0xa058(%rsp),%rbx
  402b30:	00 
  402b31:	64 48 33 1c 25 28 00 	xor    %fs:0x28,%rbx
  402b38:	00 00 
  402b3a:	74 05                	je     402b41 <submitr+0x74d>
  402b3c:	e8 bf e1 ff ff       	callq  400d00 <__stack_chk_fail@plt>
  402b41:	48 81 c4 68 a0 00 00 	add    $0xa068,%rsp
  402b48:	5b                   	pop    %rbx
  402b49:	5d                   	pop    %rbp
  402b4a:	41 5c                	pop    %r12
  402b4c:	41 5d                	pop    %r13
  402b4e:	41 5e                	pop    %r14
  402b50:	41 5f                	pop    %r15
  402b52:	c3                   	retq   

0000000000402b53 <init_timeout>:
  402b53:	53                   	push   %rbx
  402b54:	89 fb                	mov    %edi,%ebx
  402b56:	85 ff                	test   %edi,%edi
  402b58:	74 1f                	je     402b79 <init_timeout+0x26>
  402b5a:	85 ff                	test   %edi,%edi
  402b5c:	79 05                	jns    402b63 <init_timeout+0x10>
  402b5e:	bb 00 00 00 00       	mov    $0x0,%ebx
  402b63:	be 52 21 40 00       	mov    $0x402152,%esi
  402b68:	bf 0e 00 00 00       	mov    $0xe,%edi
  402b6d:	e8 fe e1 ff ff       	callq  400d70 <signal@plt>
  402b72:	89 df                	mov    %ebx,%edi
  402b74:	e8 b7 e1 ff ff       	callq  400d30 <alarm@plt>
  402b79:	5b                   	pop    %rbx
  402b7a:	c3                   	retq   

0000000000402b7b <init_driver>:
  402b7b:	55                   	push   %rbp
  402b7c:	53                   	push   %rbx
  402b7d:	48 83 ec 28          	sub    $0x28,%rsp
  402b81:	48 89 fd             	mov    %rdi,%rbp
  402b84:	64 48 8b 04 25 28 00 	mov    %fs:0x28,%rax
  402b8b:	00 00 
  402b8d:	48 89 44 24 18       	mov    %rax,0x18(%rsp)
  402b92:	31 c0                	xor    %eax,%eax
  402b94:	be 01 00 00 00       	mov    $0x1,%esi
  402b99:	bf 0d 00 00 00       	mov    $0xd,%edi
  402b9e:	e8 cd e1 ff ff       	callq  400d70 <signal@plt>
  402ba3:	be 01 00 00 00       	mov    $0x1,%esi
  402ba8:	bf 1d 00 00 00       	mov    $0x1d,%edi
  402bad:	e8 be e1 ff ff       	callq  400d70 <signal@plt>
  402bb2:	be 01 00 00 00       	mov    $0x1,%esi
  402bb7:	bf 1d 00 00 00       	mov    $0x1d,%edi
  402bbc:	e8 af e1 ff ff       	callq  400d70 <signal@plt>
  402bc1:	ba 00 00 00 00       	mov    $0x0,%edx
  402bc6:	be 01 00 00 00       	mov    $0x1,%esi
  402bcb:	bf 02 00 00 00       	mov    $0x2,%edi
  402bd0:	e8 db e2 ff ff       	callq  400eb0 <socket@plt>
  402bd5:	89 c3                	mov    %eax,%ebx
  402bd7:	85 c0                	test   %eax,%eax
  402bd9:	79 4f                	jns    402c2a <init_driver+0xaf>
  402bdb:	48 b8 45 72 72 6f 72 	movabs $0x43203a726f727245,%rax
  402be2:	3a 20 43 
  402be5:	48 89 45 00          	mov    %rax,0x0(%rbp)
  402be9:	48 b8 6c 69 65 6e 74 	movabs $0x6e7520746e65696c,%rax
  402bf0:	20 75 6e 
  402bf3:	48 89 45 08          	mov    %rax,0x8(%rbp)
  402bf7:	48 b8 61 62 6c 65 20 	movabs $0x206f7420656c6261,%rax
  402bfe:	74 6f 20 
  402c01:	48 89 45 10          	mov    %rax,0x10(%rbp)
  402c05:	48 b8 63 72 65 61 74 	movabs $0x7320657461657263,%rax
  402c0c:	65 20 73 
  402c0f:	48 89 45 18          	mov    %rax,0x18(%rbp)
  402c13:	c7 45 20 6f 63 6b 65 	movl   $0x656b636f,0x20(%rbp)
  402c1a:	66 c7 45 24 74 00    	movw   $0x74,0x24(%rbp)
  402c20:	b8 ff ff ff ff       	mov    $0xffffffff,%eax
  402c25:	e9 28 01 00 00       	jmpq   402d52 <init_driver+0x1d7>
  402c2a:	bf df 31 40 00       	mov    $0x4031df,%edi
  402c2f:	e8 4c e1 ff ff       	callq  400d80 <gethostbyname@plt>
  402c34:	48 85 c0             	test   %rax,%rax
  402c37:	75 68                	jne    402ca1 <init_driver+0x126>
  402c39:	48 b8 45 72 72 6f 72 	movabs $0x44203a726f727245,%rax
  402c40:	3a 20 44 
  402c43:	48 89 45 00          	mov    %rax,0x0(%rbp)
  402c47:	48 b8 4e 53 20 69 73 	movabs $0x6e7520736920534e,%rax
  402c4e:	20 75 6e 
  402c51:	48 89 45 08          	mov    %rax,0x8(%rbp)
  402c55:	48 b8 61 62 6c 65 20 	movabs $0x206f7420656c6261,%rax
  402c5c:	74 6f 20 
  402c5f:	48 89 45 10          	mov    %rax,0x10(%rbp)
  402c63:	48 b8 72 65 73 6f 6c 	movabs $0x2065766c6f736572,%rax
  402c6a:	76 65 20 
  402c6d:	48 89 45 18          	mov    %rax,0x18(%rbp)
  402c71:	48 b8 73 65 72 76 65 	movabs $0x6120726576726573,%rax
  402c78:	72 20 61 
  402c7b:	48 89 45 20          	mov    %rax,0x20(%rbp)
  402c7f:	c7 45 28 64 64 72 65 	movl   $0x65726464,0x28(%rbp)
  402c86:	66 c7 45 2c 73 73    	movw   $0x7373,0x2c(%rbp)
  402c8c:	c6 45 2e 00          	movb   $0x0,0x2e(%rbp)
  402c90:	89 df                	mov    %ebx,%edi
  402c92:	e8 a9 e0 ff ff       	callq  400d40 <close@plt>
  402c97:	b8 ff ff ff ff       	mov    $0xffffffff,%eax
  402c9c:	e9 b1 00 00 00       	jmpq   402d52 <init_driver+0x1d7>
  402ca1:	48 c7 04 24 00 00 00 	movq   $0x0,(%rsp)
  402ca8:	00 
  402ca9:	48 c7 44 24 08 00 00 	movq   $0x0,0x8(%rsp)
  402cb0:	00 00 
  402cb2:	66 c7 04 24 02 00    	movw   $0x2,(%rsp)
  402cb8:	48 63 50 14          	movslq 0x14(%rax),%rdx
  402cbc:	48 8b 40 18          	mov    0x18(%rax),%rax
  402cc0:	48 8b 30             	mov    (%rax),%rsi
  402cc3:	48 8d 7c 24 04       	lea    0x4(%rsp),%rdi
  402cc8:	b9 0c 00 00 00       	mov    $0xc,%ecx
  402ccd:	e8 be e0 ff ff       	callq  400d90 <__memmove_chk@plt>
  402cd2:	66 c7 44 24 02 4e f3 	movw   $0xf34e,0x2(%rsp)
  402cd9:	ba 10 00 00 00       	mov    $0x10,%edx
  402cde:	48 89 e6             	mov    %rsp,%rsi
  402ce1:	89 df                	mov    %ebx,%edi
  402ce3:	e8 98 e1 ff ff       	callq  400e80 <connect@plt>
  402ce8:	85 c0                	test   %eax,%eax
  402cea:	79 50                	jns    402d3c <init_driver+0x1c1>
  402cec:	48 b8 45 72 72 6f 72 	movabs $0x55203a726f727245,%rax
  402cf3:	3a 20 55 
  402cf6:	48 89 45 00          	mov    %rax,0x0(%rbp)
  402cfa:	48 b8 6e 61 62 6c 65 	movabs $0x6f7420656c62616e,%rax
  402d01:	20 74 6f 
  402d04:	48 89 45 08          	mov    %rax,0x8(%rbp)
  402d08:	48 b8 20 63 6f 6e 6e 	movabs $0x7463656e6e6f6320,%rax
  402d0f:	65 63 74 
  402d12:	48 89 45 10          	mov    %rax,0x10(%rbp)
  402d16:	48 b8 20 74 6f 20 73 	movabs $0x76726573206f7420,%rax
  402d1d:	65 72 76 
  402d20:	48 89 45 18          	mov    %rax,0x18(%rbp)
  402d24:	66 c7 45 20 65 72    	movw   $0x7265,0x20(%rbp)
  402d2a:	c6 45 22 00          	movb   $0x0,0x22(%rbp)
  402d2e:	89 df                	mov    %ebx,%edi
  402d30:	e8 0b e0 ff ff       	callq  400d40 <close@plt>
  402d35:	b8 ff ff ff ff       	mov    $0xffffffff,%eax
  402d3a:	eb 16                	jmp    402d52 <init_driver+0x1d7>
  402d3c:	89 df                	mov    %ebx,%edi
  402d3e:	e8 fd df ff ff       	callq  400d40 <close@plt>
  402d43:	66 c7 45 00 4f 4b    	movw   $0x4b4f,0x0(%rbp)
  402d49:	c6 45 02 00          	movb   $0x0,0x2(%rbp)
  402d4d:	b8 00 00 00 00       	mov    $0x0,%eax
  402d52:	48 8b 4c 24 18       	mov    0x18(%rsp),%rcx
  402d57:	64 48 33 0c 25 28 00 	xor    %fs:0x28,%rcx
  402d5e:	00 00 
  402d60:	74 05                	je     402d67 <init_driver+0x1ec>
  402d62:	e8 99 df ff ff       	callq  400d00 <__stack_chk_fail@plt>
  402d67:	48 83 c4 28          	add    $0x28,%rsp
  402d6b:	5b                   	pop    %rbx
  402d6c:	5d                   	pop    %rbp
  402d6d:	c3                   	retq   

0000000000402d6e <driver_post>:
  402d6e:	53                   	push   %rbx
  402d6f:	48 83 ec 10          	sub    $0x10,%rsp
  402d73:	4c 89 cb             	mov    %r9,%rbx
  402d76:	45 85 c0             	test   %r8d,%r8d
  402d79:	74 27                	je     402da2 <driver_post+0x34>
  402d7b:	48 89 ca             	mov    %rcx,%rdx
  402d7e:	be a5 36 40 00       	mov    $0x4036a5,%esi
  402d83:	bf 01 00 00 00       	mov    $0x1,%edi
  402d88:	b8 00 00 00 00       	mov    $0x0,%eax
  402d8d:	e8 8e e0 ff ff       	callq  400e20 <__printf_chk@plt>
  402d92:	66 c7 03 4f 4b       	movw   $0x4b4f,(%rbx)
  402d97:	c6 43 02 00          	movb   $0x0,0x2(%rbx)
  402d9b:	b8 00 00 00 00       	mov    $0x0,%eax
  402da0:	eb 39                	jmp    402ddb <driver_post+0x6d>
  402da2:	48 85 ff             	test   %rdi,%rdi
  402da5:	74 26                	je     402dcd <driver_post+0x5f>
  402da7:	80 3f 00             	cmpb   $0x0,(%rdi)
  402daa:	74 21                	je     402dcd <driver_post+0x5f>
  402dac:	4c 89 0c 24          	mov    %r9,(%rsp)
  402db0:	49 89 c9             	mov    %rcx,%r9
  402db3:	49 89 d0             	mov    %rdx,%r8
  402db6:	48 89 f9             	mov    %rdi,%rcx
  402db9:	48 89 f2             	mov    %rsi,%rdx
  402dbc:	be f3 4e 00 00       	mov    $0x4ef3,%esi
  402dc1:	bf df 31 40 00       	mov    $0x4031df,%edi
  402dc6:	e8 29 f6 ff ff       	callq  4023f4 <submitr>
  402dcb:	eb 0e                	jmp    402ddb <driver_post+0x6d>
  402dcd:	66 c7 03 4f 4b       	movw   $0x4b4f,(%rbx)
  402dd2:	c6 43 02 00          	movb   $0x0,0x2(%rbx)
  402dd6:	b8 00 00 00 00       	mov    $0x0,%eax
  402ddb:	48 83 c4 10          	add    $0x10,%rsp
  402ddf:	5b                   	pop    %rbx
  402de0:	c3                   	retq   

0000000000402de1 <check>:
  402de1:	89 f8                	mov    %edi,%eax
  402de3:	c1 e8 1c             	shr    $0x1c,%eax
  402de6:	85 c0                	test   %eax,%eax
  402de8:	74 1d                	je     402e07 <check+0x26>
  402dea:	b9 00 00 00 00       	mov    $0x0,%ecx
  402def:	eb 0b                	jmp    402dfc <check+0x1b>
  402df1:	89 f8                	mov    %edi,%eax
  402df3:	d3 e8                	shr    %cl,%eax
  402df5:	3c 0a                	cmp    $0xa,%al
  402df7:	74 14                	je     402e0d <check+0x2c>
  402df9:	83 c1 08             	add    $0x8,%ecx
  402dfc:	83 f9 1f             	cmp    $0x1f,%ecx
  402dff:	7e f0                	jle    402df1 <check+0x10>
  402e01:	b8 01 00 00 00       	mov    $0x1,%eax
  402e06:	c3                   	retq   
  402e07:	b8 00 00 00 00       	mov    $0x0,%eax
  402e0c:	c3                   	retq   
  402e0d:	b8 00 00 00 00       	mov    $0x0,%eax
  402e12:	c3                   	retq   

0000000000402e13 <gencookie>:
  402e13:	53                   	push   %rbx
  402e14:	83 c7 01             	add    $0x1,%edi
  402e17:	e8 94 de ff ff       	callq  400cb0 <srandom@plt>
  402e1c:	e8 bf df ff ff       	callq  400de0 <random@plt>
  402e21:	89 c3                	mov    %eax,%ebx
  402e23:	89 c7                	mov    %eax,%edi
  402e25:	e8 b7 ff ff ff       	callq  402de1 <check>
  402e2a:	85 c0                	test   %eax,%eax
  402e2c:	74 ee                	je     402e1c <gencookie+0x9>
  402e2e:	89 d8                	mov    %ebx,%eax
  402e30:	5b                   	pop    %rbx
  402e31:	c3                   	retq   
  402e32:	66 2e 0f 1f 84 00 00 	nopw   %cs:0x0(%rax,%rax,1)
  402e39:	00 00 00 
  402e3c:	0f 1f 40 00          	nopl   0x0(%rax)

0000000000402e40 <__libc_csu_init>:
  402e40:	41 57                	push   %r15
  402e42:	41 89 ff             	mov    %edi,%r15d
  402e45:	41 56                	push   %r14
  402e47:	49 89 f6             	mov    %rsi,%r14
  402e4a:	41 55                	push   %r13
  402e4c:	49 89 d5             	mov    %rdx,%r13
  402e4f:	41 54                	push   %r12
  402e51:	4c 8d 25 b8 0f 20 00 	lea    0x200fb8(%rip),%r12        # 603e10 <__frame_dummy_init_array_entry>
  402e58:	55                   	push   %rbp
  402e59:	48 8d 2d b8 0f 20 00 	lea    0x200fb8(%rip),%rbp        # 603e18 <__init_array_end>
  402e60:	53                   	push   %rbx
  402e61:	4c 29 e5             	sub    %r12,%rbp
  402e64:	31 db                	xor    %ebx,%ebx
  402e66:	48 c1 fd 03          	sar    $0x3,%rbp
  402e6a:	48 83 ec 08          	sub    $0x8,%rsp
  402e6e:	e8 ed dd ff ff       	callq  400c60 <_init>
  402e73:	48 85 ed             	test   %rbp,%rbp
  402e76:	74 1e                	je     402e96 <__libc_csu_init+0x56>
  402e78:	0f 1f 84 00 00 00 00 	nopl   0x0(%rax,%rax,1)
  402e7f:	00 
  402e80:	4c 89 ea             	mov    %r13,%rdx
  402e83:	4c 89 f6             	mov    %r14,%rsi
  402e86:	44 89 ff             	mov    %r15d,%edi
  402e89:	41 ff 14 dc          	callq  *(%r12,%rbx,8)
  402e8d:	48 83 c3 01          	add    $0x1,%rbx
  402e91:	48 39 eb             	cmp    %rbp,%rbx
  402e94:	75 ea                	jne    402e80 <__libc_csu_init+0x40>
  402e96:	48 83 c4 08          	add    $0x8,%rsp
  402e9a:	5b                   	pop    %rbx
  402e9b:	5d                   	pop    %rbp
  402e9c:	41 5c                	pop    %r12
  402e9e:	41 5d                	pop    %r13
  402ea0:	41 5e                	pop    %r14
  402ea2:	41 5f                	pop    %r15
  402ea4:	c3                   	retq   
  402ea5:	66 66 2e 0f 1f 84 00 	data16 nopw %cs:0x0(%rax,%rax,1)
  402eac:	00 00 00 00 

0000000000402eb0 <__libc_csu_fini>:
  402eb0:	f3 c3                	repz retq 

Disassembly of section .fini:

0000000000402eb4 <_fini>:
  402eb4:	48 83 ec 08          	sub    $0x8,%rsp
  402eb8:	48 83 c4 08          	add    $0x8,%rsp
  402ebc:	c3                   	retq   
