
rtarget:     file format elf64-x86-64


Disassembly of section .init:

0000000000400c60 <_init>:
  400c60:	48 83 ec 08          	sub    $0x8,%rsp
  400c64:	48 8b 05 8d 43 20 00 	mov    0x20438d(%rip),%rax        # 604ff8 <_DYNAMIC+0x1d0>
  400c6b:	48 85 c0             	test   %rax,%rax
  400c6e:	74 05                	je     400c75 <_init+0x15>
  400c70:	e8 2b 01 00 00       	callq  400da0 <__gmon_start__@plt>
  400c75:	48 83 c4 08          	add    $0x8,%rsp
  400c79:	c3                   	retq   

Disassembly of section .plt:

0000000000400c80 <strcasecmp@plt-0x10>:
  400c80:	ff 35 82 43 20 00    	pushq  0x204382(%rip)        # 605008 <_GLOBAL_OFFSET_TABLE_+0x8>
  400c86:	ff 25 84 43 20 00    	jmpq   *0x204384(%rip)        # 605010 <_GLOBAL_OFFSET_TABLE_+0x10>
  400c8c:	0f 1f 40 00          	nopl   0x0(%rax)

0000000000400c90 <strcasecmp@plt>:
  400c90:	ff 25 82 43 20 00    	jmpq   *0x204382(%rip)        # 605018 <_GLOBAL_OFFSET_TABLE_+0x18>
  400c96:	68 00 00 00 00       	pushq  $0x0
  400c9b:	e9 e0 ff ff ff       	jmpq   400c80 <_init+0x20>

0000000000400ca0 <__errno_location@plt>:
  400ca0:	ff 25 7a 43 20 00    	jmpq   *0x20437a(%rip)        # 605020 <_GLOBAL_OFFSET_TABLE_+0x20>
  400ca6:	68 01 00 00 00       	pushq  $0x1
  400cab:	e9 d0 ff ff ff       	jmpq   400c80 <_init+0x20>

0000000000400cb0 <srandom@plt>:
  400cb0:	ff 25 72 43 20 00    	jmpq   *0x204372(%rip)        # 605028 <_GLOBAL_OFFSET_TABLE_+0x28>
  400cb6:	68 02 00 00 00       	pushq  $0x2
  400cbb:	e9 c0 ff ff ff       	jmpq   400c80 <_init+0x20>

0000000000400cc0 <strncmp@plt>:
  400cc0:	ff 25 6a 43 20 00    	jmpq   *0x20436a(%rip)        # 605030 <_GLOBAL_OFFSET_TABLE_+0x30>
  400cc6:	68 03 00 00 00       	pushq  $0x3
  400ccb:	e9 b0 ff ff ff       	jmpq   400c80 <_init+0x20>

0000000000400cd0 <strcpy@plt>:
  400cd0:	ff 25 62 43 20 00    	jmpq   *0x204362(%rip)        # 605038 <_GLOBAL_OFFSET_TABLE_+0x38>
  400cd6:	68 04 00 00 00       	pushq  $0x4
  400cdb:	e9 a0 ff ff ff       	jmpq   400c80 <_init+0x20>

0000000000400ce0 <puts@plt>:
  400ce0:	ff 25 5a 43 20 00    	jmpq   *0x20435a(%rip)        # 605040 <_GLOBAL_OFFSET_TABLE_+0x40>
  400ce6:	68 05 00 00 00       	pushq  $0x5
  400ceb:	e9 90 ff ff ff       	jmpq   400c80 <_init+0x20>

0000000000400cf0 <write@plt>:
  400cf0:	ff 25 52 43 20 00    	jmpq   *0x204352(%rip)        # 605048 <_GLOBAL_OFFSET_TABLE_+0x48>
  400cf6:	68 06 00 00 00       	pushq  $0x6
  400cfb:	e9 80 ff ff ff       	jmpq   400c80 <_init+0x20>

0000000000400d00 <__stack_chk_fail@plt>:
  400d00:	ff 25 4a 43 20 00    	jmpq   *0x20434a(%rip)        # 605050 <_GLOBAL_OFFSET_TABLE_+0x50>
  400d06:	68 07 00 00 00       	pushq  $0x7
  400d0b:	e9 70 ff ff ff       	jmpq   400c80 <_init+0x20>

0000000000400d10 <mmap@plt>:
  400d10:	ff 25 42 43 20 00    	jmpq   *0x204342(%rip)        # 605058 <_GLOBAL_OFFSET_TABLE_+0x58>
  400d16:	68 08 00 00 00       	pushq  $0x8
  400d1b:	e9 60 ff ff ff       	jmpq   400c80 <_init+0x20>

0000000000400d20 <memset@plt>:
  400d20:	ff 25 3a 43 20 00    	jmpq   *0x20433a(%rip)        # 605060 <_GLOBAL_OFFSET_TABLE_+0x60>
  400d26:	68 09 00 00 00       	pushq  $0x9
  400d2b:	e9 50 ff ff ff       	jmpq   400c80 <_init+0x20>

0000000000400d30 <alarm@plt>:
  400d30:	ff 25 32 43 20 00    	jmpq   *0x204332(%rip)        # 605068 <_GLOBAL_OFFSET_TABLE_+0x68>
  400d36:	68 0a 00 00 00       	pushq  $0xa
  400d3b:	e9 40 ff ff ff       	jmpq   400c80 <_init+0x20>

0000000000400d40 <close@plt>:
  400d40:	ff 25 2a 43 20 00    	jmpq   *0x20432a(%rip)        # 605070 <_GLOBAL_OFFSET_TABLE_+0x70>
  400d46:	68 0b 00 00 00       	pushq  $0xb
  400d4b:	e9 30 ff ff ff       	jmpq   400c80 <_init+0x20>

0000000000400d50 <read@plt>:
  400d50:	ff 25 22 43 20 00    	jmpq   *0x204322(%rip)        # 605078 <_GLOBAL_OFFSET_TABLE_+0x78>
  400d56:	68 0c 00 00 00       	pushq  $0xc
  400d5b:	e9 20 ff ff ff       	jmpq   400c80 <_init+0x20>

0000000000400d60 <__libc_start_main@plt>:
  400d60:	ff 25 1a 43 20 00    	jmpq   *0x20431a(%rip)        # 605080 <_GLOBAL_OFFSET_TABLE_+0x80>
  400d66:	68 0d 00 00 00       	pushq  $0xd
  400d6b:	e9 10 ff ff ff       	jmpq   400c80 <_init+0x20>

0000000000400d70 <signal@plt>:
  400d70:	ff 25 12 43 20 00    	jmpq   *0x204312(%rip)        # 605088 <_GLOBAL_OFFSET_TABLE_+0x88>
  400d76:	68 0e 00 00 00       	pushq  $0xe
  400d7b:	e9 00 ff ff ff       	jmpq   400c80 <_init+0x20>

0000000000400d80 <gethostbyname@plt>:
  400d80:	ff 25 0a 43 20 00    	jmpq   *0x20430a(%rip)        # 605090 <_GLOBAL_OFFSET_TABLE_+0x90>
  400d86:	68 0f 00 00 00       	pushq  $0xf
  400d8b:	e9 f0 fe ff ff       	jmpq   400c80 <_init+0x20>

0000000000400d90 <__memmove_chk@plt>:
  400d90:	ff 25 02 43 20 00    	jmpq   *0x204302(%rip)        # 605098 <_GLOBAL_OFFSET_TABLE_+0x98>
  400d96:	68 10 00 00 00       	pushq  $0x10
  400d9b:	e9 e0 fe ff ff       	jmpq   400c80 <_init+0x20>

0000000000400da0 <__gmon_start__@plt>:
  400da0:	ff 25 fa 42 20 00    	jmpq   *0x2042fa(%rip)        # 6050a0 <_GLOBAL_OFFSET_TABLE_+0xa0>
  400da6:	68 11 00 00 00       	pushq  $0x11
  400dab:	e9 d0 fe ff ff       	jmpq   400c80 <_init+0x20>

0000000000400db0 <strtol@plt>:
  400db0:	ff 25 f2 42 20 00    	jmpq   *0x2042f2(%rip)        # 6050a8 <_GLOBAL_OFFSET_TABLE_+0xa8>
  400db6:	68 12 00 00 00       	pushq  $0x12
  400dbb:	e9 c0 fe ff ff       	jmpq   400c80 <_init+0x20>

0000000000400dc0 <memcpy@plt>:
  400dc0:	ff 25 ea 42 20 00    	jmpq   *0x2042ea(%rip)        # 6050b0 <_GLOBAL_OFFSET_TABLE_+0xb0>
  400dc6:	68 13 00 00 00       	pushq  $0x13
  400dcb:	e9 b0 fe ff ff       	jmpq   400c80 <_init+0x20>

0000000000400dd0 <time@plt>:
  400dd0:	ff 25 e2 42 20 00    	jmpq   *0x2042e2(%rip)        # 6050b8 <_GLOBAL_OFFSET_TABLE_+0xb8>
  400dd6:	68 14 00 00 00       	pushq  $0x14
  400ddb:	e9 a0 fe ff ff       	jmpq   400c80 <_init+0x20>

0000000000400de0 <random@plt>:
  400de0:	ff 25 da 42 20 00    	jmpq   *0x2042da(%rip)        # 6050c0 <_GLOBAL_OFFSET_TABLE_+0xc0>
  400de6:	68 15 00 00 00       	pushq  $0x15
  400deb:	e9 90 fe ff ff       	jmpq   400c80 <_init+0x20>

0000000000400df0 <_IO_getc@plt>:
  400df0:	ff 25 d2 42 20 00    	jmpq   *0x2042d2(%rip)        # 6050c8 <_GLOBAL_OFFSET_TABLE_+0xc8>
  400df6:	68 16 00 00 00       	pushq  $0x16
  400dfb:	e9 80 fe ff ff       	jmpq   400c80 <_init+0x20>

0000000000400e00 <__isoc99_sscanf@plt>:
  400e00:	ff 25 ca 42 20 00    	jmpq   *0x2042ca(%rip)        # 6050d0 <_GLOBAL_OFFSET_TABLE_+0xd0>
  400e06:	68 17 00 00 00       	pushq  $0x17
  400e0b:	e9 70 fe ff ff       	jmpq   400c80 <_init+0x20>

0000000000400e10 <munmap@plt>:
  400e10:	ff 25 c2 42 20 00    	jmpq   *0x2042c2(%rip)        # 6050d8 <_GLOBAL_OFFSET_TABLE_+0xd8>
  400e16:	68 18 00 00 00       	pushq  $0x18
  400e1b:	e9 60 fe ff ff       	jmpq   400c80 <_init+0x20>

0000000000400e20 <__printf_chk@plt>:
  400e20:	ff 25 ba 42 20 00    	jmpq   *0x2042ba(%rip)        # 6050e0 <_GLOBAL_OFFSET_TABLE_+0xe0>
  400e26:	68 19 00 00 00       	pushq  $0x19
  400e2b:	e9 50 fe ff ff       	jmpq   400c80 <_init+0x20>

0000000000400e30 <fopen@plt>:
  400e30:	ff 25 b2 42 20 00    	jmpq   *0x2042b2(%rip)        # 6050e8 <_GLOBAL_OFFSET_TABLE_+0xe8>
  400e36:	68 1a 00 00 00       	pushq  $0x1a
  400e3b:	e9 40 fe ff ff       	jmpq   400c80 <_init+0x20>

0000000000400e40 <getopt@plt>:
  400e40:	ff 25 aa 42 20 00    	jmpq   *0x2042aa(%rip)        # 6050f0 <_GLOBAL_OFFSET_TABLE_+0xf0>
  400e46:	68 1b 00 00 00       	pushq  $0x1b
  400e4b:	e9 30 fe ff ff       	jmpq   400c80 <_init+0x20>

0000000000400e50 <strtoul@plt>:
  400e50:	ff 25 a2 42 20 00    	jmpq   *0x2042a2(%rip)        # 6050f8 <_GLOBAL_OFFSET_TABLE_+0xf8>
  400e56:	68 1c 00 00 00       	pushq  $0x1c
  400e5b:	e9 20 fe ff ff       	jmpq   400c80 <_init+0x20>

0000000000400e60 <gethostname@plt>:
  400e60:	ff 25 9a 42 20 00    	jmpq   *0x20429a(%rip)        # 605100 <_GLOBAL_OFFSET_TABLE_+0x100>
  400e66:	68 1d 00 00 00       	pushq  $0x1d
  400e6b:	e9 10 fe ff ff       	jmpq   400c80 <_init+0x20>

0000000000400e70 <exit@plt>:
  400e70:	ff 25 92 42 20 00    	jmpq   *0x204292(%rip)        # 605108 <_GLOBAL_OFFSET_TABLE_+0x108>
  400e76:	68 1e 00 00 00       	pushq  $0x1e
  400e7b:	e9 00 fe ff ff       	jmpq   400c80 <_init+0x20>

0000000000400e80 <connect@plt>:
  400e80:	ff 25 8a 42 20 00    	jmpq   *0x20428a(%rip)        # 605110 <_GLOBAL_OFFSET_TABLE_+0x110>
  400e86:	68 1f 00 00 00       	pushq  $0x1f
  400e8b:	e9 f0 fd ff ff       	jmpq   400c80 <_init+0x20>

0000000000400e90 <__fprintf_chk@plt>:
  400e90:	ff 25 82 42 20 00    	jmpq   *0x204282(%rip)        # 605118 <_GLOBAL_OFFSET_TABLE_+0x118>
  400e96:	68 20 00 00 00       	pushq  $0x20
  400e9b:	e9 e0 fd ff ff       	jmpq   400c80 <_init+0x20>

0000000000400ea0 <__sprintf_chk@plt>:
  400ea0:	ff 25 7a 42 20 00    	jmpq   *0x20427a(%rip)        # 605120 <_GLOBAL_OFFSET_TABLE_+0x120>
  400ea6:	68 21 00 00 00       	pushq  $0x21
  400eab:	e9 d0 fd ff ff       	jmpq   400c80 <_init+0x20>

0000000000400eb0 <socket@plt>:
  400eb0:	ff 25 72 42 20 00    	jmpq   *0x204272(%rip)        # 605128 <_GLOBAL_OFFSET_TABLE_+0x128>
  400eb6:	68 22 00 00 00       	pushq  $0x22
  400ebb:	e9 c0 fd ff ff       	jmpq   400c80 <_init+0x20>

Disassembly of section .text:

0000000000400ec0 <_start>:
  400ec0:	31 ed                	xor    %ebp,%ebp
  400ec2:	49 89 d1             	mov    %rdx,%r9
  400ec5:	5e                   	pop    %rsi
  400ec6:	48 89 e2             	mov    %rsp,%rdx
  400ec9:	48 83 e4 f0          	and    $0xfffffffffffffff0,%rsp
  400ecd:	50                   	push   %rax
  400ece:	54                   	push   %rsp
  400ecf:	49 c7 c0 d0 2f 40 00 	mov    $0x402fd0,%r8
  400ed6:	48 c7 c1 60 2f 40 00 	mov    $0x402f60,%rcx
  400edd:	48 c7 c7 bf 11 40 00 	mov    $0x4011bf,%rdi
  400ee4:	e8 77 fe ff ff       	callq  400d60 <__libc_start_main@plt>
  400ee9:	f4                   	hlt    
  400eea:	66 0f 1f 44 00 00    	nopw   0x0(%rax,%rax,1)

0000000000400ef0 <deregister_tm_clones>:
  400ef0:	b8 b7 54 60 00       	mov    $0x6054b7,%eax
  400ef5:	55                   	push   %rbp
  400ef6:	48 2d b0 54 60 00    	sub    $0x6054b0,%rax
  400efc:	48 83 f8 0e          	cmp    $0xe,%rax
  400f00:	48 89 e5             	mov    %rsp,%rbp
  400f03:	77 02                	ja     400f07 <deregister_tm_clones+0x17>
  400f05:	5d                   	pop    %rbp
  400f06:	c3                   	retq   
  400f07:	b8 00 00 00 00       	mov    $0x0,%eax
  400f0c:	48 85 c0             	test   %rax,%rax
  400f0f:	74 f4                	je     400f05 <deregister_tm_clones+0x15>
  400f11:	5d                   	pop    %rbp
  400f12:	bf b0 54 60 00       	mov    $0x6054b0,%edi
  400f17:	ff e0                	jmpq   *%rax
  400f19:	0f 1f 80 00 00 00 00 	nopl   0x0(%rax)

0000000000400f20 <register_tm_clones>:
  400f20:	b8 b0 54 60 00       	mov    $0x6054b0,%eax
  400f25:	55                   	push   %rbp
  400f26:	48 2d b0 54 60 00    	sub    $0x6054b0,%rax
  400f2c:	48 c1 f8 03          	sar    $0x3,%rax
  400f30:	48 89 e5             	mov    %rsp,%rbp
  400f33:	48 89 c2             	mov    %rax,%rdx
  400f36:	48 c1 ea 3f          	shr    $0x3f,%rdx
  400f3a:	48 01 d0             	add    %rdx,%rax
  400f3d:	48 d1 f8             	sar    %rax
  400f40:	75 02                	jne    400f44 <register_tm_clones+0x24>
  400f42:	5d                   	pop    %rbp
  400f43:	c3                   	retq   
  400f44:	ba 00 00 00 00       	mov    $0x0,%edx
  400f49:	48 85 d2             	test   %rdx,%rdx
  400f4c:	74 f4                	je     400f42 <register_tm_clones+0x22>
  400f4e:	5d                   	pop    %rbp
  400f4f:	48 89 c6             	mov    %rax,%rsi
  400f52:	bf b0 54 60 00       	mov    $0x6054b0,%edi
  400f57:	ff e2                	jmpq   *%rdx
  400f59:	0f 1f 80 00 00 00 00 	nopl   0x0(%rax)

0000000000400f60 <__do_global_dtors_aux>:
  400f60:	80 3d 89 45 20 00 00 	cmpb   $0x0,0x204589(%rip)        # 6054f0 <completed.6973>
  400f67:	75 11                	jne    400f7a <__do_global_dtors_aux+0x1a>
  400f69:	55                   	push   %rbp
  400f6a:	48 89 e5             	mov    %rsp,%rbp
  400f6d:	e8 7e ff ff ff       	callq  400ef0 <deregister_tm_clones>
  400f72:	5d                   	pop    %rbp
  400f73:	c6 05 76 45 20 00 01 	movb   $0x1,0x204576(%rip)        # 6054f0 <completed.6973>
  400f7a:	f3 c3                	repz retq 
  400f7c:	0f 1f 40 00          	nopl   0x0(%rax)

0000000000400f80 <frame_dummy>:
  400f80:	48 83 3d 98 3e 20 00 	cmpq   $0x0,0x203e98(%rip)        # 604e20 <__JCR_END__>
  400f87:	00 
  400f88:	74 1e                	je     400fa8 <frame_dummy+0x28>
  400f8a:	b8 00 00 00 00       	mov    $0x0,%eax
  400f8f:	48 85 c0             	test   %rax,%rax
  400f92:	74 14                	je     400fa8 <frame_dummy+0x28>
  400f94:	55                   	push   %rbp
  400f95:	bf 20 4e 60 00       	mov    $0x604e20,%edi
  400f9a:	48 89 e5             	mov    %rsp,%rbp
  400f9d:	ff d0                	callq  *%rax
  400f9f:	5d                   	pop    %rbp
  400fa0:	e9 7b ff ff ff       	jmpq   400f20 <register_tm_clones>
  400fa5:	0f 1f 00             	nopl   (%rax)
  400fa8:	e9 73 ff ff ff       	jmpq   400f20 <register_tm_clones>
  400fad:	0f 1f 00             	nopl   (%rax)

0000000000400fb0 <usage>:
  400fb0:	48 83 ec 08          	sub    $0x8,%rsp
  400fb4:	48 89 fa             	mov    %rdi,%rdx
  400fb7:	83 3d 6a 45 20 00 00 	cmpl   $0x0,0x20456a(%rip)        # 605528 <is_checker>
  400fbe:	74 3e                	je     400ffe <usage+0x4e>
  400fc0:	be e8 2f 40 00       	mov    $0x402fe8,%esi
  400fc5:	bf 01 00 00 00       	mov    $0x1,%edi
  400fca:	b8 00 00 00 00       	mov    $0x0,%eax
  400fcf:	e8 4c fe ff ff       	callq  400e20 <__printf_chk@plt>
  400fd4:	bf 20 30 40 00       	mov    $0x403020,%edi
  400fd9:	e8 02 fd ff ff       	callq  400ce0 <puts@plt>
  400fde:	bf 98 31 40 00       	mov    $0x403198,%edi
  400fe3:	e8 f8 fc ff ff       	callq  400ce0 <puts@plt>
  400fe8:	bf 48 30 40 00       	mov    $0x403048,%edi
  400fed:	e8 ee fc ff ff       	callq  400ce0 <puts@plt>
  400ff2:	bf b2 31 40 00       	mov    $0x4031b2,%edi
  400ff7:	e8 e4 fc ff ff       	callq  400ce0 <puts@plt>
  400ffc:	eb 32                	jmp    401030 <usage+0x80>
  400ffe:	be ce 31 40 00       	mov    $0x4031ce,%esi
  401003:	bf 01 00 00 00       	mov    $0x1,%edi
  401008:	b8 00 00 00 00       	mov    $0x0,%eax
  40100d:	e8 0e fe ff ff       	callq  400e20 <__printf_chk@plt>
  401012:	bf 70 30 40 00       	mov    $0x403070,%edi
  401017:	e8 c4 fc ff ff       	callq  400ce0 <puts@plt>
  40101c:	bf 98 30 40 00       	mov    $0x403098,%edi
  401021:	e8 ba fc ff ff       	callq  400ce0 <puts@plt>
  401026:	bf ec 31 40 00       	mov    $0x4031ec,%edi
  40102b:	e8 b0 fc ff ff       	callq  400ce0 <puts@plt>
  401030:	bf 00 00 00 00       	mov    $0x0,%edi
  401035:	e8 36 fe ff ff       	callq  400e70 <exit@plt>

000000000040103a <initialize_target>:
  40103a:	55                   	push   %rbp
  40103b:	53                   	push   %rbx
  40103c:	48 81 ec 18 21 00 00 	sub    $0x2118,%rsp
  401043:	89 f5                	mov    %esi,%ebp
  401045:	64 48 8b 04 25 28 00 	mov    %fs:0x28,%rax
  40104c:	00 00 
  40104e:	48 89 84 24 08 21 00 	mov    %rax,0x2108(%rsp)
  401055:	00 
  401056:	31 c0                	xor    %eax,%eax
  401058:	89 3d ba 44 20 00    	mov    %edi,0x2044ba(%rip)        # 605518 <check_level>
  40105e:	8b 3d 04 41 20 00    	mov    0x204104(%rip),%edi        # 605168 <target_id>
  401064:	e8 ca 1e 00 00       	callq  402f33 <gencookie>
  401069:	89 05 b5 44 20 00    	mov    %eax,0x2044b5(%rip)        # 605524 <cookie>
  40106f:	89 c7                	mov    %eax,%edi
  401071:	e8 bd 1e 00 00       	callq  402f33 <gencookie>
  401076:	89 05 a4 44 20 00    	mov    %eax,0x2044a4(%rip)        # 605520 <authkey>
  40107c:	8b 05 e6 40 20 00    	mov    0x2040e6(%rip),%eax        # 605168 <target_id>
  401082:	8d 78 01             	lea    0x1(%rax),%edi
  401085:	e8 26 fc ff ff       	callq  400cb0 <srandom@plt>
  40108a:	e8 51 fd ff ff       	callq  400de0 <random@plt>
  40108f:	89 c7                	mov    %eax,%edi
  401091:	e8 03 03 00 00       	callq  401399 <scramble>
  401096:	89 c3                	mov    %eax,%ebx
  401098:	85 ed                	test   %ebp,%ebp
  40109a:	74 18                	je     4010b4 <initialize_target+0x7a>
  40109c:	bf 00 00 00 00       	mov    $0x0,%edi
  4010a1:	e8 2a fd ff ff       	callq  400dd0 <time@plt>
  4010a6:	89 c7                	mov    %eax,%edi
  4010a8:	e8 03 fc ff ff       	callq  400cb0 <srandom@plt>
  4010ad:	e8 2e fd ff ff       	callq  400de0 <random@plt>
  4010b2:	eb 05                	jmp    4010b9 <initialize_target+0x7f>
  4010b4:	b8 00 00 00 00       	mov    $0x0,%eax
  4010b9:	01 c3                	add    %eax,%ebx
  4010bb:	0f b7 db             	movzwl %bx,%ebx
  4010be:	8d 04 dd 00 01 00 00 	lea    0x100(,%rbx,8),%eax
  4010c5:	89 c0                	mov    %eax,%eax
  4010c7:	48 89 05 d2 43 20 00 	mov    %rax,0x2043d2(%rip)        # 6054a0 <buf_offset>
  4010ce:	c6 05 73 50 20 00 72 	movb   $0x72,0x205073(%rip)        # 606148 <target_prefix>
  4010d5:	83 3d cc 43 20 00 00 	cmpl   $0x0,0x2043cc(%rip)        # 6054a8 <notify>
  4010dc:	0f 84 bb 00 00 00    	je     40119d <initialize_target+0x163>
  4010e2:	83 3d 3f 44 20 00 00 	cmpl   $0x0,0x20443f(%rip)        # 605528 <is_checker>
  4010e9:	0f 85 ae 00 00 00    	jne    40119d <initialize_target+0x163>
  4010ef:	be 00 01 00 00       	mov    $0x100,%esi
  4010f4:	48 89 e7             	mov    %rsp,%rdi
  4010f7:	e8 64 fd ff ff       	callq  400e60 <gethostname@plt>
  4010fc:	85 c0                	test   %eax,%eax
  4010fe:	74 25                	je     401125 <initialize_target+0xeb>
  401100:	bf c8 30 40 00       	mov    $0x4030c8,%edi
  401105:	e8 d6 fb ff ff       	callq  400ce0 <puts@plt>
  40110a:	bf 08 00 00 00       	mov    $0x8,%edi
  40110f:	e8 5c fd ff ff       	callq  400e70 <exit@plt>
  401114:	48 89 e6             	mov    %rsp,%rsi
  401117:	e8 74 fb ff ff       	callq  400c90 <strcasecmp@plt>
  40111c:	85 c0                	test   %eax,%eax
  40111e:	74 21                	je     401141 <initialize_target+0x107>
  401120:	83 c3 01             	add    $0x1,%ebx
  401123:	eb 05                	jmp    40112a <initialize_target+0xf0>
  401125:	bb 00 00 00 00       	mov    $0x0,%ebx
  40112a:	48 63 c3             	movslq %ebx,%rax
  40112d:	48 8b 3c c5 80 51 60 	mov    0x605180(,%rax,8),%rdi
  401134:	00 
  401135:	48 85 ff             	test   %rdi,%rdi
  401138:	75 da                	jne    401114 <initialize_target+0xda>
  40113a:	b8 00 00 00 00       	mov    $0x0,%eax
  40113f:	eb 05                	jmp    401146 <initialize_target+0x10c>
  401141:	b8 01 00 00 00       	mov    $0x1,%eax
  401146:	85 c0                	test   %eax,%eax
  401148:	75 1c                	jne    401166 <initialize_target+0x12c>
  40114a:	48 89 e2             	mov    %rsp,%rdx
  40114d:	be 00 31 40 00       	mov    $0x403100,%esi
  401152:	bf 01 00 00 00       	mov    $0x1,%edi
  401157:	e8 c4 fc ff ff       	callq  400e20 <__printf_chk@plt>
  40115c:	bf 08 00 00 00       	mov    $0x8,%edi
  401161:	e8 0a fd ff ff       	callq  400e70 <exit@plt>
  401166:	48 8d bc 24 00 01 00 	lea    0x100(%rsp),%rdi
  40116d:	00 
  40116e:	e8 28 1b 00 00       	callq  402c9b <init_driver>
  401173:	85 c0                	test   %eax,%eax
  401175:	79 26                	jns    40119d <initialize_target+0x163>
  401177:	48 8d 94 24 00 01 00 	lea    0x100(%rsp),%rdx
  40117e:	00 
  40117f:	be 40 31 40 00       	mov    $0x403140,%esi
  401184:	bf 01 00 00 00       	mov    $0x1,%edi
  401189:	b8 00 00 00 00       	mov    $0x0,%eax
  40118e:	e8 8d fc ff ff       	callq  400e20 <__printf_chk@plt>
  401193:	bf 08 00 00 00       	mov    $0x8,%edi
  401198:	e8 d3 fc ff ff       	callq  400e70 <exit@plt>
  40119d:	48 8b 84 24 08 21 00 	mov    0x2108(%rsp),%rax
  4011a4:	00 
  4011a5:	64 48 33 04 25 28 00 	xor    %fs:0x28,%rax
  4011ac:	00 00 
  4011ae:	74 05                	je     4011b5 <initialize_target+0x17b>
  4011b0:	e8 4b fb ff ff       	callq  400d00 <__stack_chk_fail@plt>
  4011b5:	48 81 c4 18 21 00 00 	add    $0x2118,%rsp
  4011bc:	5b                   	pop    %rbx
  4011bd:	5d                   	pop    %rbp
  4011be:	c3                   	retq   

00000000004011bf <main>:
  4011bf:	41 56                	push   %r14
  4011c1:	41 55                	push   %r13
  4011c3:	41 54                	push   %r12
  4011c5:	55                   	push   %rbp
  4011c6:	53                   	push   %rbx
  4011c7:	41 89 fc             	mov    %edi,%r12d
  4011ca:	48 89 f3             	mov    %rsi,%rbx
  4011cd:	be 0e 20 40 00       	mov    $0x40200e,%esi
  4011d2:	bf 0b 00 00 00       	mov    $0xb,%edi
  4011d7:	e8 94 fb ff ff       	callq  400d70 <signal@plt>
  4011dc:	be c0 1f 40 00       	mov    $0x401fc0,%esi
  4011e1:	bf 07 00 00 00       	mov    $0x7,%edi
  4011e6:	e8 85 fb ff ff       	callq  400d70 <signal@plt>
  4011eb:	be 5c 20 40 00       	mov    $0x40205c,%esi
  4011f0:	bf 04 00 00 00       	mov    $0x4,%edi
  4011f5:	e8 76 fb ff ff       	callq  400d70 <signal@plt>
  4011fa:	83 3d 27 43 20 00 00 	cmpl   $0x0,0x204327(%rip)        # 605528 <is_checker>
  401201:	74 20                	je     401223 <main+0x64>
  401203:	be aa 20 40 00       	mov    $0x4020aa,%esi
  401208:	bf 0e 00 00 00       	mov    $0xe,%edi
  40120d:	e8 5e fb ff ff       	callq  400d70 <signal@plt>
  401212:	bf 05 00 00 00       	mov    $0x5,%edi
  401217:	e8 14 fb ff ff       	callq  400d30 <alarm@plt>
  40121c:	bd 0a 32 40 00       	mov    $0x40320a,%ebp
  401221:	eb 05                	jmp    401228 <main+0x69>
  401223:	bd 05 32 40 00       	mov    $0x403205,%ebp
  401228:	48 8b 05 91 42 20 00 	mov    0x204291(%rip),%rax        # 6054c0 <stdin@@GLIBC_2.2.5>
  40122f:	48 89 05 da 42 20 00 	mov    %rax,0x2042da(%rip)        # 605510 <infile>
  401236:	41 bd 00 00 00 00    	mov    $0x0,%r13d
  40123c:	41 be 00 00 00 00    	mov    $0x0,%r14d
  401242:	e9 c6 00 00 00       	jmpq   40130d <main+0x14e>
  401247:	83 e8 61             	sub    $0x61,%eax
  40124a:	3c 10                	cmp    $0x10,%al
  40124c:	0f 87 9c 00 00 00    	ja     4012ee <main+0x12f>
  401252:	0f b6 c0             	movzbl %al,%eax
  401255:	ff 24 c5 50 32 40 00 	jmpq   *0x403250(,%rax,8)
  40125c:	48 8b 3b             	mov    (%rbx),%rdi
  40125f:	e8 4c fd ff ff       	callq  400fb0 <usage>
  401264:	be bd 34 40 00       	mov    $0x4034bd,%esi
  401269:	48 8b 3d 70 42 20 00 	mov    0x204270(%rip),%rdi        # 6054e0 <optarg@@GLIBC_2.2.5>
  401270:	e8 bb fb ff ff       	callq  400e30 <fopen@plt>
  401275:	48 89 05 94 42 20 00 	mov    %rax,0x204294(%rip)        # 605510 <infile>
  40127c:	48 85 c0             	test   %rax,%rax
  40127f:	0f 85 88 00 00 00    	jne    40130d <main+0x14e>
  401285:	48 8b 0d 54 42 20 00 	mov    0x204254(%rip),%rcx        # 6054e0 <optarg@@GLIBC_2.2.5>
  40128c:	ba 12 32 40 00       	mov    $0x403212,%edx
  401291:	be 01 00 00 00       	mov    $0x1,%esi
  401296:	48 8b 3d 4b 42 20 00 	mov    0x20424b(%rip),%rdi        # 6054e8 <stderr@@GLIBC_2.2.5>
  40129d:	e8 ee fb ff ff       	callq  400e90 <__fprintf_chk@plt>
  4012a2:	b8 01 00 00 00       	mov    $0x1,%eax
  4012a7:	e9 e4 00 00 00       	jmpq   401390 <main+0x1d1>
  4012ac:	ba 10 00 00 00       	mov    $0x10,%edx
  4012b1:	be 00 00 00 00       	mov    $0x0,%esi
  4012b6:	48 8b 3d 23 42 20 00 	mov    0x204223(%rip),%rdi        # 6054e0 <optarg@@GLIBC_2.2.5>
  4012bd:	e8 8e fb ff ff       	callq  400e50 <strtoul@plt>
  4012c2:	41 89 c6             	mov    %eax,%r14d
  4012c5:	eb 46                	jmp    40130d <main+0x14e>
  4012c7:	ba 0a 00 00 00       	mov    $0xa,%edx
  4012cc:	be 00 00 00 00       	mov    $0x0,%esi
  4012d1:	48 8b 3d 08 42 20 00 	mov    0x204208(%rip),%rdi        # 6054e0 <optarg@@GLIBC_2.2.5>
  4012d8:	e8 d3 fa ff ff       	callq  400db0 <strtol@plt>
  4012dd:	41 89 c5             	mov    %eax,%r13d
  4012e0:	eb 2b                	jmp    40130d <main+0x14e>
  4012e2:	c7 05 bc 41 20 00 00 	movl   $0x0,0x2041bc(%rip)        # 6054a8 <notify>
  4012e9:	00 00 00 
  4012ec:	eb 1f                	jmp    40130d <main+0x14e>
  4012ee:	0f be d2             	movsbl %dl,%edx
  4012f1:	be 2f 32 40 00       	mov    $0x40322f,%esi
  4012f6:	bf 01 00 00 00       	mov    $0x1,%edi
  4012fb:	b8 00 00 00 00       	mov    $0x0,%eax
  401300:	e8 1b fb ff ff       	callq  400e20 <__printf_chk@plt>
  401305:	48 8b 3b             	mov    (%rbx),%rdi
  401308:	e8 a3 fc ff ff       	callq  400fb0 <usage>
  40130d:	48 89 ea             	mov    %rbp,%rdx
  401310:	48 89 de             	mov    %rbx,%rsi
  401313:	44 89 e7             	mov    %r12d,%edi
  401316:	e8 25 fb ff ff       	callq  400e40 <getopt@plt>
  40131b:	89 c2                	mov    %eax,%edx
  40131d:	3c ff                	cmp    $0xff,%al
  40131f:	0f 85 22 ff ff ff    	jne    401247 <main+0x88>
  401325:	be 01 00 00 00       	mov    $0x1,%esi
  40132a:	44 89 ef             	mov    %r13d,%edi
  40132d:	e8 08 fd ff ff       	callq  40103a <initialize_target>
  401332:	83 3d ef 41 20 00 00 	cmpl   $0x0,0x2041ef(%rip)        # 605528 <is_checker>
  401339:	74 2a                	je     401365 <main+0x1a6>
  40133b:	44 3b 35 de 41 20 00 	cmp    0x2041de(%rip),%r14d        # 605520 <authkey>
  401342:	74 21                	je     401365 <main+0x1a6>
  401344:	44 89 f2             	mov    %r14d,%edx
  401347:	be 68 31 40 00       	mov    $0x403168,%esi
  40134c:	bf 01 00 00 00       	mov    $0x1,%edi
  401351:	b8 00 00 00 00       	mov    $0x0,%eax
  401356:	e8 c5 fa ff ff       	callq  400e20 <__printf_chk@plt>
  40135b:	b8 00 00 00 00       	mov    $0x0,%eax
  401360:	e8 e6 08 00 00       	callq  401c4b <check_fail>
  401365:	8b 15 b9 41 20 00    	mov    0x2041b9(%rip),%edx        # 605524 <cookie>
  40136b:	be 42 32 40 00       	mov    $0x403242,%esi
  401370:	bf 01 00 00 00       	mov    $0x1,%edi
  401375:	b8 00 00 00 00       	mov    $0x0,%eax
  40137a:	e8 a1 fa ff ff       	callq  400e20 <__printf_chk@plt>
  40137f:	48 8b 3d 1a 41 20 00 	mov    0x20411a(%rip),%rdi        # 6054a0 <buf_offset>
  401386:	e8 72 0d 00 00       	callq  4020fd <launch>
  40138b:	b8 00 00 00 00       	mov    $0x0,%eax
  401390:	5b                   	pop    %rbx
  401391:	5d                   	pop    %rbp
  401392:	41 5c                	pop    %r12
  401394:	41 5d                	pop    %r13
  401396:	41 5e                	pop    %r14
  401398:	c3                   	retq   

0000000000401399 <scramble>:
  401399:	b8 00 00 00 00       	mov    $0x0,%eax
  40139e:	eb 11                	jmp    4013b1 <scramble+0x18>
  4013a0:	69 c8 b0 52 00 00    	imul   $0x52b0,%eax,%ecx
  4013a6:	01 f9                	add    %edi,%ecx
  4013a8:	89 c2                	mov    %eax,%edx
  4013aa:	89 4c 94 c8          	mov    %ecx,-0x38(%rsp,%rdx,4)
  4013ae:	83 c0 01             	add    $0x1,%eax
  4013b1:	83 f8 09             	cmp    $0x9,%eax
  4013b4:	76 ea                	jbe    4013a0 <scramble+0x7>
  4013b6:	8b 44 24 cc          	mov    -0x34(%rsp),%eax
  4013ba:	89 c2                	mov    %eax,%edx
  4013bc:	c1 e2 04             	shl    $0x4,%edx
  4013bf:	29 c2                	sub    %eax,%edx
  4013c1:	89 54 24 cc          	mov    %edx,-0x34(%rsp)
  4013c5:	8b 44 24 d0          	mov    -0x30(%rsp),%eax
  4013c9:	69 c0 1d 03 00 00    	imul   $0x31d,%eax,%eax
  4013cf:	89 44 24 d0          	mov    %eax,-0x30(%rsp)
  4013d3:	8b 44 24 e4          	mov    -0x1c(%rsp),%eax
  4013d7:	69 c0 06 43 00 00    	imul   $0x4306,%eax,%eax
  4013dd:	89 44 24 e4          	mov    %eax,-0x1c(%rsp)
  4013e1:	8b 44 24 dc          	mov    -0x24(%rsp),%eax
  4013e5:	69 c0 59 18 00 00    	imul   $0x1859,%eax,%eax
  4013eb:	89 44 24 dc          	mov    %eax,-0x24(%rsp)
  4013ef:	8b 44 24 d4          	mov    -0x2c(%rsp),%eax
  4013f3:	69 c0 d0 2e 00 00    	imul   $0x2ed0,%eax,%eax
  4013f9:	89 44 24 d4          	mov    %eax,-0x2c(%rsp)
  4013fd:	8b 44 24 cc          	mov    -0x34(%rsp),%eax
  401401:	69 c0 35 87 00 00    	imul   $0x8735,%eax,%eax
  401407:	89 44 24 cc          	mov    %eax,-0x34(%rsp)
  40140b:	8b 44 24 d0          	mov    -0x30(%rsp),%eax
  40140f:	69 c0 59 27 00 00    	imul   $0x2759,%eax,%eax
  401415:	89 44 24 d0          	mov    %eax,-0x30(%rsp)
  401419:	8b 44 24 e4          	mov    -0x1c(%rsp),%eax
  40141d:	69 c0 dc 66 00 00    	imul   $0x66dc,%eax,%eax
  401423:	89 44 24 e4          	mov    %eax,-0x1c(%rsp)
  401427:	8b 44 24 ec          	mov    -0x14(%rsp),%eax
  40142b:	69 c0 4e d8 00 00    	imul   $0xd84e,%eax,%eax
  401431:	89 44 24 ec          	mov    %eax,-0x14(%rsp)
  401435:	8b 44 24 e0          	mov    -0x20(%rsp),%eax
  401439:	69 c0 12 eb 00 00    	imul   $0xeb12,%eax,%eax
  40143f:	89 44 24 e0          	mov    %eax,-0x20(%rsp)
  401443:	8b 44 24 d8          	mov    -0x28(%rsp),%eax
  401447:	69 c0 35 13 00 00    	imul   $0x1335,%eax,%eax
  40144d:	89 44 24 d8          	mov    %eax,-0x28(%rsp)
  401451:	8b 44 24 d8          	mov    -0x28(%rsp),%eax
  401455:	69 c0 66 a2 00 00    	imul   $0xa266,%eax,%eax
  40145b:	89 44 24 d8          	mov    %eax,-0x28(%rsp)
  40145f:	8b 44 24 c8          	mov    -0x38(%rsp),%eax
  401463:	69 c0 40 66 00 00    	imul   $0x6640,%eax,%eax
  401469:	89 44 24 c8          	mov    %eax,-0x38(%rsp)
  40146d:	8b 44 24 c8          	mov    -0x38(%rsp),%eax
  401471:	69 c0 94 c9 00 00    	imul   $0xc994,%eax,%eax
  401477:	89 44 24 c8          	mov    %eax,-0x38(%rsp)
  40147b:	8b 44 24 cc          	mov    -0x34(%rsp),%eax
  40147f:	69 c0 0e cd 00 00    	imul   $0xcd0e,%eax,%eax
  401485:	89 44 24 cc          	mov    %eax,-0x34(%rsp)
  401489:	8b 44 24 d4          	mov    -0x2c(%rsp),%eax
  40148d:	69 c0 fd 18 00 00    	imul   $0x18fd,%eax,%eax
  401493:	89 44 24 d4          	mov    %eax,-0x2c(%rsp)
  401497:	8b 44 24 d0          	mov    -0x30(%rsp),%eax
  40149b:	69 c0 c0 3d 00 00    	imul   $0x3dc0,%eax,%eax
  4014a1:	89 44 24 d0          	mov    %eax,-0x30(%rsp)
  4014a5:	8b 44 24 d8          	mov    -0x28(%rsp),%eax
  4014a9:	69 c0 3d c4 00 00    	imul   $0xc43d,%eax,%eax
  4014af:	89 44 24 d8          	mov    %eax,-0x28(%rsp)
  4014b3:	8b 44 24 cc          	mov    -0x34(%rsp),%eax
  4014b7:	69 c0 0f 4e 00 00    	imul   $0x4e0f,%eax,%eax
  4014bd:	89 44 24 cc          	mov    %eax,-0x34(%rsp)
  4014c1:	8b 44 24 e0          	mov    -0x20(%rsp),%eax
  4014c5:	69 c0 6f 95 00 00    	imul   $0x956f,%eax,%eax
  4014cb:	89 44 24 e0          	mov    %eax,-0x20(%rsp)
  4014cf:	8b 44 24 d8          	mov    -0x28(%rsp),%eax
  4014d3:	69 c0 a2 87 00 00    	imul   $0x87a2,%eax,%eax
  4014d9:	89 44 24 d8          	mov    %eax,-0x28(%rsp)
  4014dd:	8b 44 24 e8          	mov    -0x18(%rsp),%eax
  4014e1:	69 c0 43 8f 00 00    	imul   $0x8f43,%eax,%eax
  4014e7:	89 44 24 e8          	mov    %eax,-0x18(%rsp)
  4014eb:	8b 44 24 dc          	mov    -0x24(%rsp),%eax
  4014ef:	69 c0 eb d3 00 00    	imul   $0xd3eb,%eax,%eax
  4014f5:	89 44 24 dc          	mov    %eax,-0x24(%rsp)
  4014f9:	8b 44 24 dc          	mov    -0x24(%rsp),%eax
  4014fd:	69 c0 85 8c 00 00    	imul   $0x8c85,%eax,%eax
  401503:	89 44 24 dc          	mov    %eax,-0x24(%rsp)
  401507:	8b 44 24 cc          	mov    -0x34(%rsp),%eax
  40150b:	69 c0 38 3c 00 00    	imul   $0x3c38,%eax,%eax
  401511:	89 44 24 cc          	mov    %eax,-0x34(%rsp)
  401515:	8b 44 24 d8          	mov    -0x28(%rsp),%eax
  401519:	69 c0 bd 2a 00 00    	imul   $0x2abd,%eax,%eax
  40151f:	89 44 24 d8          	mov    %eax,-0x28(%rsp)
  401523:	8b 44 24 d0          	mov    -0x30(%rsp),%eax
  401527:	69 c0 3b f3 00 00    	imul   $0xf33b,%eax,%eax
  40152d:	89 44 24 d0          	mov    %eax,-0x30(%rsp)
  401531:	8b 44 24 d4          	mov    -0x2c(%rsp),%eax
  401535:	69 c0 6a 19 00 00    	imul   $0x196a,%eax,%eax
  40153b:	89 44 24 d4          	mov    %eax,-0x2c(%rsp)
  40153f:	8b 44 24 e8          	mov    -0x18(%rsp),%eax
  401543:	69 c0 96 81 00 00    	imul   $0x8196,%eax,%eax
  401549:	89 44 24 e8          	mov    %eax,-0x18(%rsp)
  40154d:	8b 44 24 e0          	mov    -0x20(%rsp),%eax
  401551:	69 c0 c7 1f 00 00    	imul   $0x1fc7,%eax,%eax
  401557:	89 44 24 e0          	mov    %eax,-0x20(%rsp)
  40155b:	8b 44 24 d8          	mov    -0x28(%rsp),%eax
  40155f:	69 c0 8f 4e 00 00    	imul   $0x4e8f,%eax,%eax
  401565:	89 44 24 d8          	mov    %eax,-0x28(%rsp)
  401569:	8b 44 24 d0          	mov    -0x30(%rsp),%eax
  40156d:	69 c0 c2 1b 00 00    	imul   $0x1bc2,%eax,%eax
  401573:	89 44 24 d0          	mov    %eax,-0x30(%rsp)
  401577:	8b 44 24 cc          	mov    -0x34(%rsp),%eax
  40157b:	69 c0 de 54 00 00    	imul   $0x54de,%eax,%eax
  401581:	89 44 24 cc          	mov    %eax,-0x34(%rsp)
  401585:	8b 44 24 e0          	mov    -0x20(%rsp),%eax
  401589:	69 c0 16 0d 00 00    	imul   $0xd16,%eax,%eax
  40158f:	89 44 24 e0          	mov    %eax,-0x20(%rsp)
  401593:	8b 44 24 c8          	mov    -0x38(%rsp),%eax
  401597:	69 c0 96 bc 00 00    	imul   $0xbc96,%eax,%eax
  40159d:	89 44 24 c8          	mov    %eax,-0x38(%rsp)
  4015a1:	8b 44 24 ec          	mov    -0x14(%rsp),%eax
  4015a5:	69 c0 ce 1f 00 00    	imul   $0x1fce,%eax,%eax
  4015ab:	89 44 24 ec          	mov    %eax,-0x14(%rsp)
  4015af:	8b 44 24 cc          	mov    -0x34(%rsp),%eax
  4015b3:	69 c0 2a bf 00 00    	imul   $0xbf2a,%eax,%eax
  4015b9:	89 44 24 cc          	mov    %eax,-0x34(%rsp)
  4015bd:	8b 44 24 d4          	mov    -0x2c(%rsp),%eax
  4015c1:	69 c0 35 f3 00 00    	imul   $0xf335,%eax,%eax
  4015c7:	89 44 24 d4          	mov    %eax,-0x2c(%rsp)
  4015cb:	8b 44 24 e0          	mov    -0x20(%rsp),%eax
  4015cf:	69 c0 30 a5 00 00    	imul   $0xa530,%eax,%eax
  4015d5:	89 44 24 e0          	mov    %eax,-0x20(%rsp)
  4015d9:	8b 44 24 d8          	mov    -0x28(%rsp),%eax
  4015dd:	69 c0 4f 3f 00 00    	imul   $0x3f4f,%eax,%eax
  4015e3:	89 44 24 d8          	mov    %eax,-0x28(%rsp)
  4015e7:	8b 44 24 d8          	mov    -0x28(%rsp),%eax
  4015eb:	69 c0 51 f7 00 00    	imul   $0xf751,%eax,%eax
  4015f1:	89 44 24 d8          	mov    %eax,-0x28(%rsp)
  4015f5:	8b 44 24 d8          	mov    -0x28(%rsp),%eax
  4015f9:	69 c0 d6 30 00 00    	imul   $0x30d6,%eax,%eax
  4015ff:	89 44 24 d8          	mov    %eax,-0x28(%rsp)
  401603:	8b 44 24 c8          	mov    -0x38(%rsp),%eax
  401607:	69 c0 30 37 00 00    	imul   $0x3730,%eax,%eax
  40160d:	89 44 24 c8          	mov    %eax,-0x38(%rsp)
  401611:	8b 44 24 cc          	mov    -0x34(%rsp),%eax
  401615:	69 c0 07 44 00 00    	imul   $0x4407,%eax,%eax
  40161b:	89 44 24 cc          	mov    %eax,-0x34(%rsp)
  40161f:	8b 44 24 d0          	mov    -0x30(%rsp),%eax
  401623:	69 c0 3f 2d 00 00    	imul   $0x2d3f,%eax,%eax
  401629:	89 44 24 d0          	mov    %eax,-0x30(%rsp)
  40162d:	8b 44 24 c8          	mov    -0x38(%rsp),%eax
  401631:	69 c0 6b 07 00 00    	imul   $0x76b,%eax,%eax
  401637:	89 44 24 c8          	mov    %eax,-0x38(%rsp)
  40163b:	8b 44 24 d4          	mov    -0x2c(%rsp),%eax
  40163f:	69 c0 93 9c 00 00    	imul   $0x9c93,%eax,%eax
  401645:	89 44 24 d4          	mov    %eax,-0x2c(%rsp)
  401649:	8b 44 24 d4          	mov    -0x2c(%rsp),%eax
  40164d:	69 c0 1e 08 00 00    	imul   $0x81e,%eax,%eax
  401653:	89 44 24 d4          	mov    %eax,-0x2c(%rsp)
  401657:	8b 44 24 d4          	mov    -0x2c(%rsp),%eax
  40165b:	69 c0 2d 03 00 00    	imul   $0x32d,%eax,%eax
  401661:	89 44 24 d4          	mov    %eax,-0x2c(%rsp)
  401665:	8b 44 24 e4          	mov    -0x1c(%rsp),%eax
  401669:	69 c0 5f 94 00 00    	imul   $0x945f,%eax,%eax
  40166f:	89 44 24 e4          	mov    %eax,-0x1c(%rsp)
  401673:	8b 44 24 d4          	mov    -0x2c(%rsp),%eax
  401677:	69 c0 bb b7 00 00    	imul   $0xb7bb,%eax,%eax
  40167d:	89 44 24 d4          	mov    %eax,-0x2c(%rsp)
  401681:	8b 44 24 ec          	mov    -0x14(%rsp),%eax
  401685:	69 c0 fc 03 00 00    	imul   $0x3fc,%eax,%eax
  40168b:	89 44 24 ec          	mov    %eax,-0x14(%rsp)
  40168f:	8b 44 24 e4          	mov    -0x1c(%rsp),%eax
  401693:	69 c0 3e 63 00 00    	imul   $0x633e,%eax,%eax
  401699:	89 44 24 e4          	mov    %eax,-0x1c(%rsp)
  40169d:	8b 44 24 d8          	mov    -0x28(%rsp),%eax
  4016a1:	69 c0 fb 09 00 00    	imul   $0x9fb,%eax,%eax
  4016a7:	89 44 24 d8          	mov    %eax,-0x28(%rsp)
  4016ab:	8b 44 24 d8          	mov    -0x28(%rsp),%eax
  4016af:	69 c0 eb 76 00 00    	imul   $0x76eb,%eax,%eax
  4016b5:	89 44 24 d8          	mov    %eax,-0x28(%rsp)
  4016b9:	8b 44 24 d0          	mov    -0x30(%rsp),%eax
  4016bd:	69 c0 d7 e9 00 00    	imul   $0xe9d7,%eax,%eax
  4016c3:	89 44 24 d0          	mov    %eax,-0x30(%rsp)
  4016c7:	8b 44 24 cc          	mov    -0x34(%rsp),%eax
  4016cb:	69 c0 56 b3 00 00    	imul   $0xb356,%eax,%eax
  4016d1:	89 44 24 cc          	mov    %eax,-0x34(%rsp)
  4016d5:	8b 44 24 e4          	mov    -0x1c(%rsp),%eax
  4016d9:	69 c0 c8 58 00 00    	imul   $0x58c8,%eax,%eax
  4016df:	89 44 24 e4          	mov    %eax,-0x1c(%rsp)
  4016e3:	8b 44 24 e4          	mov    -0x1c(%rsp),%eax
  4016e7:	69 c0 ee 64 00 00    	imul   $0x64ee,%eax,%eax
  4016ed:	89 44 24 e4          	mov    %eax,-0x1c(%rsp)
  4016f1:	8b 44 24 d4          	mov    -0x2c(%rsp),%eax
  4016f5:	69 c0 4e a3 00 00    	imul   $0xa34e,%eax,%eax
  4016fb:	89 44 24 d4          	mov    %eax,-0x2c(%rsp)
  4016ff:	8b 44 24 ec          	mov    -0x14(%rsp),%eax
  401703:	69 c0 9e 00 00 00    	imul   $0x9e,%eax,%eax
  401709:	89 44 24 ec          	mov    %eax,-0x14(%rsp)
  40170d:	8b 44 24 e4          	mov    -0x1c(%rsp),%eax
  401711:	69 c0 fb 0d 00 00    	imul   $0xdfb,%eax,%eax
  401717:	89 44 24 e4          	mov    %eax,-0x1c(%rsp)
  40171b:	8b 44 24 c8          	mov    -0x38(%rsp),%eax
  40171f:	69 c0 e7 cd 00 00    	imul   $0xcde7,%eax,%eax
  401725:	89 44 24 c8          	mov    %eax,-0x38(%rsp)
  401729:	8b 44 24 c8          	mov    -0x38(%rsp),%eax
  40172d:	69 c0 a2 8e 00 00    	imul   $0x8ea2,%eax,%eax
  401733:	89 44 24 c8          	mov    %eax,-0x38(%rsp)
  401737:	8b 44 24 d0          	mov    -0x30(%rsp),%eax
  40173b:	69 c0 4f 2b 00 00    	imul   $0x2b4f,%eax,%eax
  401741:	89 44 24 d0          	mov    %eax,-0x30(%rsp)
  401745:	8b 44 24 e8          	mov    -0x18(%rsp),%eax
  401749:	69 c0 d7 90 00 00    	imul   $0x90d7,%eax,%eax
  40174f:	89 44 24 e8          	mov    %eax,-0x18(%rsp)
  401753:	8b 44 24 e8          	mov    -0x18(%rsp),%eax
  401757:	69 c0 2f d7 00 00    	imul   $0xd72f,%eax,%eax
  40175d:	89 44 24 e8          	mov    %eax,-0x18(%rsp)
  401761:	8b 44 24 d0          	mov    -0x30(%rsp),%eax
  401765:	69 c0 ef 59 00 00    	imul   $0x59ef,%eax,%eax
  40176b:	89 44 24 d0          	mov    %eax,-0x30(%rsp)
  40176f:	8b 44 24 c8          	mov    -0x38(%rsp),%eax
  401773:	69 c0 05 8c 00 00    	imul   $0x8c05,%eax,%eax
  401779:	89 44 24 c8          	mov    %eax,-0x38(%rsp)
  40177d:	8b 44 24 d4          	mov    -0x2c(%rsp),%eax
  401781:	69 c0 dc 42 00 00    	imul   $0x42dc,%eax,%eax
  401787:	89 44 24 d4          	mov    %eax,-0x2c(%rsp)
  40178b:	8b 44 24 e4          	mov    -0x1c(%rsp),%eax
  40178f:	69 c0 34 ad 00 00    	imul   $0xad34,%eax,%eax
  401795:	89 44 24 e4          	mov    %eax,-0x1c(%rsp)
  401799:	8b 44 24 dc          	mov    -0x24(%rsp),%eax
  40179d:	69 c0 2d 71 00 00    	imul   $0x712d,%eax,%eax
  4017a3:	89 44 24 dc          	mov    %eax,-0x24(%rsp)
  4017a7:	8b 44 24 e0          	mov    -0x20(%rsp),%eax
  4017ab:	69 c0 61 47 00 00    	imul   $0x4761,%eax,%eax
  4017b1:	89 44 24 e0          	mov    %eax,-0x20(%rsp)
  4017b5:	8b 44 24 d4          	mov    -0x2c(%rsp),%eax
  4017b9:	69 c0 12 4b 00 00    	imul   $0x4b12,%eax,%eax
  4017bf:	89 44 24 d4          	mov    %eax,-0x2c(%rsp)
  4017c3:	8b 44 24 d0          	mov    -0x30(%rsp),%eax
  4017c7:	69 c0 c5 66 00 00    	imul   $0x66c5,%eax,%eax
  4017cd:	89 44 24 d0          	mov    %eax,-0x30(%rsp)
  4017d1:	8b 44 24 d4          	mov    -0x2c(%rsp),%eax
  4017d5:	69 c0 7c 3e 00 00    	imul   $0x3e7c,%eax,%eax
  4017db:	89 44 24 d4          	mov    %eax,-0x2c(%rsp)
  4017df:	8b 44 24 d4          	mov    -0x2c(%rsp),%eax
  4017e3:	69 c0 19 99 00 00    	imul   $0x9919,%eax,%eax
  4017e9:	89 44 24 d4          	mov    %eax,-0x2c(%rsp)
  4017ed:	8b 44 24 e0          	mov    -0x20(%rsp),%eax
  4017f1:	69 c0 94 04 00 00    	imul   $0x494,%eax,%eax
  4017f7:	89 44 24 e0          	mov    %eax,-0x20(%rsp)
  4017fb:	8b 44 24 d4          	mov    -0x2c(%rsp),%eax
  4017ff:	69 c0 91 62 00 00    	imul   $0x6291,%eax,%eax
  401805:	89 44 24 d4          	mov    %eax,-0x2c(%rsp)
  401809:	8b 44 24 e0          	mov    -0x20(%rsp),%eax
  40180d:	69 c0 14 38 00 00    	imul   $0x3814,%eax,%eax
  401813:	89 44 24 e0          	mov    %eax,-0x20(%rsp)
  401817:	8b 44 24 e0          	mov    -0x20(%rsp),%eax
  40181b:	69 c0 39 b6 00 00    	imul   $0xb639,%eax,%eax
  401821:	89 44 24 e0          	mov    %eax,-0x20(%rsp)
  401825:	8b 44 24 d0          	mov    -0x30(%rsp),%eax
  401829:	69 c0 ea 70 00 00    	imul   $0x70ea,%eax,%eax
  40182f:	89 44 24 d0          	mov    %eax,-0x30(%rsp)
  401833:	8b 44 24 d0          	mov    -0x30(%rsp),%eax
  401837:	69 c0 c0 5d 00 00    	imul   $0x5dc0,%eax,%eax
  40183d:	89 44 24 d0          	mov    %eax,-0x30(%rsp)
  401841:	8b 44 24 d4          	mov    -0x2c(%rsp),%eax
  401845:	69 c0 d6 c7 00 00    	imul   $0xc7d6,%eax,%eax
  40184b:	89 44 24 d4          	mov    %eax,-0x2c(%rsp)
  40184f:	8b 44 24 d4          	mov    -0x2c(%rsp),%eax
  401853:	69 c0 c4 2e 00 00    	imul   $0x2ec4,%eax,%eax
  401859:	89 44 24 d4          	mov    %eax,-0x2c(%rsp)
  40185d:	8b 44 24 d4          	mov    -0x2c(%rsp),%eax
  401861:	69 c0 b6 ec 00 00    	imul   $0xecb6,%eax,%eax
  401867:	89 44 24 d4          	mov    %eax,-0x2c(%rsp)
  40186b:	8b 44 24 d8          	mov    -0x28(%rsp),%eax
  40186f:	69 c0 66 37 00 00    	imul   $0x3766,%eax,%eax
  401875:	89 44 24 d8          	mov    %eax,-0x28(%rsp)
  401879:	8b 44 24 d4          	mov    -0x2c(%rsp),%eax
  40187d:	69 c0 84 3c 00 00    	imul   $0x3c84,%eax,%eax
  401883:	89 44 24 d4          	mov    %eax,-0x2c(%rsp)
  401887:	8b 44 24 d8          	mov    -0x28(%rsp),%eax
  40188b:	69 c0 da 27 00 00    	imul   $0x27da,%eax,%eax
  401891:	89 44 24 d8          	mov    %eax,-0x28(%rsp)
  401895:	8b 44 24 d4          	mov    -0x2c(%rsp),%eax
  401899:	69 c0 16 2b 00 00    	imul   $0x2b16,%eax,%eax
  40189f:	89 44 24 d4          	mov    %eax,-0x2c(%rsp)
  4018a3:	8b 44 24 d8          	mov    -0x28(%rsp),%eax
  4018a7:	69 c0 f6 75 00 00    	imul   $0x75f6,%eax,%eax
  4018ad:	89 44 24 d8          	mov    %eax,-0x28(%rsp)
  4018b1:	ba 00 00 00 00       	mov    $0x0,%edx
  4018b6:	b8 00 00 00 00       	mov    $0x0,%eax
  4018bb:	eb 0b                	jmp    4018c8 <scramble+0x52f>
  4018bd:	89 d1                	mov    %edx,%ecx
  4018bf:	8b 4c 8c c8          	mov    -0x38(%rsp,%rcx,4),%ecx
  4018c3:	01 c8                	add    %ecx,%eax
  4018c5:	83 c2 01             	add    $0x1,%edx
  4018c8:	83 fa 09             	cmp    $0x9,%edx
  4018cb:	76 f0                	jbe    4018bd <scramble+0x524>
  4018cd:	f3 c3                	repz retq 

00000000004018cf <getbuf>:
  4018cf:	48 83 ec 38          	sub    $0x38,%rsp
  4018d3:	48 89 e7             	mov    %rsp,%rdi
  4018d6:	e8 a5 03 00 00       	callq  401c80 <Gets>
  4018db:	b8 01 00 00 00       	mov    $0x1,%eax
  4018e0:	48 83 c4 38          	add    $0x38,%rsp
  4018e4:	c3                   	retq   

00000000004018e5 <touch1>:
  4018e5:	48 83 ec 08          	sub    $0x8,%rsp
  4018e9:	c7 05 29 3c 20 00 01 	movl   $0x1,0x203c29(%rip)        # 60551c <vlevel>
  4018f0:	00 00 00 
  4018f3:	bf 16 33 40 00       	mov    $0x403316,%edi
  4018f8:	e8 e3 f3 ff ff       	callq  400ce0 <puts@plt>
  4018fd:	bf 01 00 00 00       	mov    $0x1,%edi
  401902:	e8 cf 05 00 00       	callq  401ed6 <validate>
  401907:	bf 00 00 00 00       	mov    $0x0,%edi
  40190c:	e8 5f f5 ff ff       	callq  400e70 <exit@plt>

0000000000401911 <touch2>:
  401911:	48 83 ec 08          	sub    $0x8,%rsp
  401915:	89 fa                	mov    %edi,%edx
  401917:	c7 05 fb 3b 20 00 02 	movl   $0x2,0x203bfb(%rip)        # 60551c <vlevel>
  40191e:	00 00 00 
  401921:	3b 3d fd 3b 20 00    	cmp    0x203bfd(%rip),%edi        # 605524 <cookie>
  401927:	75 20                	jne    401949 <touch2+0x38>
  401929:	be 38 33 40 00       	mov    $0x403338,%esi
  40192e:	bf 01 00 00 00       	mov    $0x1,%edi
  401933:	b8 00 00 00 00       	mov    $0x0,%eax
  401938:	e8 e3 f4 ff ff       	callq  400e20 <__printf_chk@plt>
  40193d:	bf 02 00 00 00       	mov    $0x2,%edi
  401942:	e8 8f 05 00 00       	callq  401ed6 <validate>
  401947:	eb 1e                	jmp    401967 <touch2+0x56>
  401949:	be 60 33 40 00       	mov    $0x403360,%esi
  40194e:	bf 01 00 00 00       	mov    $0x1,%edi
  401953:	b8 00 00 00 00       	mov    $0x0,%eax
  401958:	e8 c3 f4 ff ff       	callq  400e20 <__printf_chk@plt>
  40195d:	bf 02 00 00 00       	mov    $0x2,%edi
  401962:	e8 31 06 00 00       	callq  401f98 <fail>
  401967:	bf 00 00 00 00       	mov    $0x0,%edi
  40196c:	e8 ff f4 ff ff       	callq  400e70 <exit@plt>

0000000000401971 <hexmatch>:
  401971:	41 54                	push   %r12
  401973:	55                   	push   %rbp
  401974:	53                   	push   %rbx
  401975:	48 83 c4 80          	add    $0xffffffffffffff80,%rsp
  401979:	41 89 fc             	mov    %edi,%r12d
  40197c:	48 89 f5             	mov    %rsi,%rbp
  40197f:	64 48 8b 04 25 28 00 	mov    %fs:0x28,%rax
  401986:	00 00 
  401988:	48 89 44 24 78       	mov    %rax,0x78(%rsp)
  40198d:	31 c0                	xor    %eax,%eax
  40198f:	e8 4c f4 ff ff       	callq  400de0 <random@plt>
  401994:	48 89 c1             	mov    %rax,%rcx
  401997:	48 ba 0b d7 a3 70 3d 	movabs $0xa3d70a3d70a3d70b,%rdx
  40199e:	0a d7 a3 
  4019a1:	48 f7 ea             	imul   %rdx
  4019a4:	48 01 ca             	add    %rcx,%rdx
  4019a7:	48 c1 fa 06          	sar    $0x6,%rdx
  4019ab:	48 89 c8             	mov    %rcx,%rax
  4019ae:	48 c1 f8 3f          	sar    $0x3f,%rax
  4019b2:	48 29 c2             	sub    %rax,%rdx
  4019b5:	48 8d 04 92          	lea    (%rdx,%rdx,4),%rax
  4019b9:	48 8d 04 80          	lea    (%rax,%rax,4),%rax
  4019bd:	48 c1 e0 02          	shl    $0x2,%rax
  4019c1:	48 29 c1             	sub    %rax,%rcx
  4019c4:	48 8d 1c 0c          	lea    (%rsp,%rcx,1),%rbx
  4019c8:	45 89 e0             	mov    %r12d,%r8d
  4019cb:	b9 33 33 40 00       	mov    $0x403333,%ecx
  4019d0:	48 c7 c2 ff ff ff ff 	mov    $0xffffffffffffffff,%rdx
  4019d7:	be 01 00 00 00       	mov    $0x1,%esi
  4019dc:	48 89 df             	mov    %rbx,%rdi
  4019df:	b8 00 00 00 00       	mov    $0x0,%eax
  4019e4:	e8 b7 f4 ff ff       	callq  400ea0 <__sprintf_chk@plt>
  4019e9:	ba 09 00 00 00       	mov    $0x9,%edx
  4019ee:	48 89 de             	mov    %rbx,%rsi
  4019f1:	48 89 ef             	mov    %rbp,%rdi
  4019f4:	e8 c7 f2 ff ff       	callq  400cc0 <strncmp@plt>
  4019f9:	85 c0                	test   %eax,%eax
  4019fb:	0f 94 c0             	sete   %al
  4019fe:	0f b6 c0             	movzbl %al,%eax
  401a01:	48 8b 74 24 78       	mov    0x78(%rsp),%rsi
  401a06:	64 48 33 34 25 28 00 	xor    %fs:0x28,%rsi
  401a0d:	00 00 
  401a0f:	74 05                	je     401a16 <hexmatch+0xa5>
  401a11:	e8 ea f2 ff ff       	callq  400d00 <__stack_chk_fail@plt>
  401a16:	48 83 ec 80          	sub    $0xffffffffffffff80,%rsp
  401a1a:	5b                   	pop    %rbx
  401a1b:	5d                   	pop    %rbp
  401a1c:	41 5c                	pop    %r12
  401a1e:	c3                   	retq   

0000000000401a1f <touch3>:
  401a1f:	53                   	push   %rbx
  401a20:	48 89 fb             	mov    %rdi,%rbx
  401a23:	c7 05 ef 3a 20 00 03 	movl   $0x3,0x203aef(%rip)        # 60551c <vlevel>
  401a2a:	00 00 00 
  401a2d:	48 89 fe             	mov    %rdi,%rsi
  401a30:	8b 3d ee 3a 20 00    	mov    0x203aee(%rip),%edi        # 605524 <cookie>
  401a36:	e8 36 ff ff ff       	callq  401971 <hexmatch>
  401a3b:	85 c0                	test   %eax,%eax
  401a3d:	74 23                	je     401a62 <touch3+0x43>
  401a3f:	48 89 da             	mov    %rbx,%rdx
  401a42:	be 88 33 40 00       	mov    $0x403388,%esi
  401a47:	bf 01 00 00 00       	mov    $0x1,%edi
  401a4c:	b8 00 00 00 00       	mov    $0x0,%eax
  401a51:	e8 ca f3 ff ff       	callq  400e20 <__printf_chk@plt>
  401a56:	bf 03 00 00 00       	mov    $0x3,%edi
  401a5b:	e8 76 04 00 00       	callq  401ed6 <validate>
  401a60:	eb 21                	jmp    401a83 <touch3+0x64>
  401a62:	48 89 da             	mov    %rbx,%rdx
  401a65:	be b0 33 40 00       	mov    $0x4033b0,%esi
  401a6a:	bf 01 00 00 00       	mov    $0x1,%edi
  401a6f:	b8 00 00 00 00       	mov    $0x0,%eax
  401a74:	e8 a7 f3 ff ff       	callq  400e20 <__printf_chk@plt>
  401a79:	bf 03 00 00 00       	mov    $0x3,%edi
  401a7e:	e8 15 05 00 00       	callq  401f98 <fail>
  401a83:	bf 00 00 00 00       	mov    $0x0,%edi
  401a88:	e8 e3 f3 ff ff       	callq  400e70 <exit@plt>

0000000000401a8d <test>:
  401a8d:	48 83 ec 08          	sub    $0x8,%rsp
  401a91:	b8 00 00 00 00       	mov    $0x0,%eax
  401a96:	e8 34 fe ff ff       	callq  4018cf <getbuf>
  401a9b:	89 c2                	mov    %eax,%edx
  401a9d:	be d8 33 40 00       	mov    $0x4033d8,%esi
  401aa2:	bf 01 00 00 00       	mov    $0x1,%edi
  401aa7:	b8 00 00 00 00       	mov    $0x0,%eax
  401aac:	e8 6f f3 ff ff       	callq  400e20 <__printf_chk@plt>
  401ab1:	48 83 c4 08          	add    $0x8,%rsp
  401ab5:	c3                   	retq   

0000000000401ab6 <start_farm>:
  401ab6:	b8 01 00 00 00       	mov    $0x1,%eax
  401abb:	c3                   	retq   

0000000000401abc <setval_254>:
  401abc:	c7 07 58 89 c7 c3    	movl   $0xc3c78958,(%rdi)
  401ac2:	c3                   	retq   

0000000000401ac3 <addval_318>:
  401ac3:	8d 87 58 94 90 90    	lea    -0x6f6f6ba8(%rdi),%eax
  401ac9:	c3                   	retq   

0000000000401aca <setval_437>:
  401aca:	c7 07 48 99 c7 c3    	movl   $0xc3c79948,(%rdi)
  401ad0:	c3                   	retq   

0000000000401ad1 <getval_283>:
  401ad1:	b8 48 89 c7 90       	mov    $0x90c78948,%eax
  401ad6:	c3                   	retq   

0000000000401ad7 <addval_402>:
  401ad7:	8d 87 58 90 91 c3    	lea    -0x3c6e6fa8(%rdi),%eax
  401add:	c3                   	retq   

0000000000401ade <addval_494>:
  401ade:	8d 87 58 90 c3 db    	lea    -0x243c6fa8(%rdi),%eax
  401ae4:	c3                   	retq   

0000000000401ae5 <getval_353>:
  401ae5:	b8 48 89 c7 90       	mov    $0x90c78948,%eax
  401aea:	c3                   	retq   

0000000000401aeb <addval_172>:
  401aeb:	8d 87 58 90 90 90    	lea    -0x6f6f6fa8(%rdi),%eax
  401af1:	c3                   	retq   

0000000000401af2 <mid_farm>:
  401af2:	b8 01 00 00 00       	mov    $0x1,%eax
  401af7:	c3                   	retq   

0000000000401af8 <add_xy>:
  401af8:	48 8d 04 37          	lea    (%rdi,%rsi,1),%rax
  401afc:	c3                   	retq   

0000000000401afd <getval_398>:
  401afd:	b8 48 89 e0 90       	mov    $0x90e08948,%eax
  401b02:	c3                   	retq   

0000000000401b03 <addval_493>:
  401b03:	8d 87 89 ce 91 90    	lea    -0x6f6e3177(%rdi),%eax
  401b09:	c3                   	retq   

0000000000401b0a <setval_281>:
  401b0a:	c7 07 48 89 e0 c3    	movl   $0xc3e08948,(%rdi)
  401b10:	c3                   	retq   

0000000000401b11 <addval_413>:
  401b11:	8d 87 89 ce 08 c0    	lea    -0x3ff73177(%rdi),%eax
  401b17:	c3                   	retq   

0000000000401b18 <getval_440>:
  401b18:	b8 89 ce a4 db       	mov    $0xdba4ce89,%eax
  401b1d:	c3                   	retq   

0000000000401b1e <addval_110>:
  401b1e:	8d 87 89 c2 94 c3    	lea    -0x3c6b3d77(%rdi),%eax
  401b24:	c3                   	retq   

0000000000401b25 <setval_209>:
  401b25:	c7 07 81 ce 38 d2    	movl   $0xd238ce81,(%rdi)
  401b2b:	c3                   	retq   

0000000000401b2c <setval_192>:
  401b2c:	c7 07 89 d1 28 d2    	movl   $0xd228d189,(%rdi)
  401b32:	c3                   	retq   

0000000000401b33 <addval_271>:
  401b33:	8d 87 99 c2 20 c9    	lea    -0x36df3d67(%rdi),%eax
  401b39:	c3                   	retq   

0000000000401b3a <getval_135>:
  401b3a:	b8 48 c9 e0 c3       	mov    $0xc3e0c948,%eax
  401b3f:	c3                   	retq   

0000000000401b40 <addval_181>:
  401b40:	8d 87 89 ce 90 c3    	lea    -0x3c6f3177(%rdi),%eax
  401b46:	c3                   	retq   

0000000000401b47 <getval_161>:
  401b47:	b8 89 c2 94 90       	mov    $0x9094c289,%eax
  401b4c:	c3                   	retq   

0000000000401b4d <setval_149>:
  401b4d:	c7 07 48 89 e0 92    	movl   $0x92e08948,(%rdi)
  401b53:	c3                   	retq   

0000000000401b54 <addval_215>:
  401b54:	8d 87 89 c2 08 db    	lea    -0x24f73d77(%rdi),%eax
  401b5a:	c3                   	retq   

0000000000401b5b <setval_377>:
  401b5b:	c7 07 89 d1 a4 d2    	movl   $0xd2a4d189,(%rdi)
  401b61:	c3                   	retq   

0000000000401b62 <addval_422>:
  401b62:	8d 87 89 c2 18 db    	lea    -0x24e73d77(%rdi),%eax
  401b68:	c3                   	retq   

0000000000401b69 <setval_445>:
  401b69:	c7 07 4c 89 e0 90    	movl   $0x90e0894c,(%rdi)
  401b6f:	c3                   	retq   

0000000000401b70 <addval_372>:
  401b70:	8d 87 89 d1 08 c9    	lea    -0x36f72e77(%rdi),%eax
  401b76:	c3                   	retq   

0000000000401b77 <addval_187>:
  401b77:	8d 87 89 ce c7 ee    	lea    -0x11383177(%rdi),%eax
  401b7d:	c3                   	retq   

0000000000401b7e <addval_171>:
  401b7e:	8d 87 89 c2 20 c0    	lea    -0x3fdf3d77(%rdi),%eax
  401b84:	c3                   	retq   

0000000000401b85 <addval_303>:
  401b85:	8d 87 48 89 e0 91    	lea    -0x6e1f76b8(%rdi),%eax
  401b8b:	c3                   	retq   

0000000000401b8c <addval_343>:
  401b8c:	8d 87 4b a9 ce 90    	lea    -0x6f3156b5(%rdi),%eax
  401b92:	c3                   	retq   

0000000000401b93 <getval_134>:
  401b93:	b8 89 c2 00 db       	mov    $0xdb00c289,%eax
  401b98:	c3                   	retq   

0000000000401b99 <setval_292>:
  401b99:	c7 07 89 d1 78 c0    	movl   $0xc078d189,(%rdi)
  401b9f:	c3                   	retq   

0000000000401ba0 <setval_367>:
  401ba0:	c7 07 8d c2 84 d2    	movl   $0xd284c28d,(%rdi)
  401ba6:	c3                   	retq   

0000000000401ba7 <getval_131>:
  401ba7:	b8 48 89 e0 c1       	mov    $0xc1e08948,%eax
  401bac:	c3                   	retq   

0000000000401bad <setval_326>:
  401bad:	c7 07 c9 ce 08 c9    	movl   $0xc908cec9,(%rdi)
  401bb3:	c3                   	retq   

0000000000401bb4 <getval_409>:
  401bb4:	b8 89 d1 90 90       	mov    $0x9090d189,%eax
  401bb9:	c3                   	retq   

0000000000401bba <getval_428>:
  401bba:	b8 89 d1 28 c9       	mov    $0xc928d189,%eax
  401bbf:	c3                   	retq   

0000000000401bc0 <setval_224>:
  401bc0:	c7 07 48 89 e0 94    	movl   $0x94e08948,(%rdi)
  401bc6:	c3                   	retq   

0000000000401bc7 <setval_306>:
  401bc7:	c7 07 09 d1 38 c9    	movl   $0xc938d109,(%rdi)
  401bcd:	c3                   	retq   

0000000000401bce <setval_439>:
  401bce:	c7 07 d5 89 d1 92    	movl   $0x92d189d5,(%rdi)
  401bd4:	c3                   	retq   

0000000000401bd5 <end_farm>:
  401bd5:	b8 01 00 00 00       	mov    $0x1,%eax
  401bda:	c3                   	retq   
  401bdb:	0f 1f 44 00 00       	nopl   0x0(%rax,%rax,1)

0000000000401be0 <save_char>:
  401be0:	8b 05 5e 45 20 00    	mov    0x20455e(%rip),%eax        # 606144 <gets_cnt>
  401be6:	3d ff 03 00 00       	cmp    $0x3ff,%eax
  401beb:	7f 49                	jg     401c36 <save_char+0x56>
  401bed:	8d 14 40             	lea    (%rax,%rax,2),%edx
  401bf0:	89 f9                	mov    %edi,%ecx
  401bf2:	c0 e9 04             	shr    $0x4,%cl
  401bf5:	83 e1 0f             	and    $0xf,%ecx
  401bf8:	0f b6 b1 00 37 40 00 	movzbl 0x403700(%rcx),%esi
  401bff:	48 63 ca             	movslq %edx,%rcx
  401c02:	40 88 b1 40 55 60 00 	mov    %sil,0x605540(%rcx)
  401c09:	8d 4a 01             	lea    0x1(%rdx),%ecx
  401c0c:	83 e7 0f             	and    $0xf,%edi
  401c0f:	0f b6 b7 00 37 40 00 	movzbl 0x403700(%rdi),%esi
  401c16:	48 63 c9             	movslq %ecx,%rcx
  401c19:	40 88 b1 40 55 60 00 	mov    %sil,0x605540(%rcx)
  401c20:	83 c2 02             	add    $0x2,%edx
  401c23:	48 63 d2             	movslq %edx,%rdx
  401c26:	c6 82 40 55 60 00 20 	movb   $0x20,0x605540(%rdx)
  401c2d:	83 c0 01             	add    $0x1,%eax
  401c30:	89 05 0e 45 20 00    	mov    %eax,0x20450e(%rip)        # 606144 <gets_cnt>
  401c36:	f3 c3                	repz retq 

0000000000401c38 <save_term>:
  401c38:	8b 05 06 45 20 00    	mov    0x204506(%rip),%eax        # 606144 <gets_cnt>
  401c3e:	8d 04 40             	lea    (%rax,%rax,2),%eax
  401c41:	48 98                	cltq   
  401c43:	c6 80 40 55 60 00 00 	movb   $0x0,0x605540(%rax)
  401c4a:	c3                   	retq   

0000000000401c4b <check_fail>:
  401c4b:	48 83 ec 08          	sub    $0x8,%rsp
  401c4f:	0f be 15 f2 44 20 00 	movsbl 0x2044f2(%rip),%edx        # 606148 <target_prefix>
  401c56:	41 b8 40 55 60 00    	mov    $0x605540,%r8d
  401c5c:	8b 0d b6 38 20 00    	mov    0x2038b6(%rip),%ecx        # 605518 <check_level>
  401c62:	be fb 33 40 00       	mov    $0x4033fb,%esi
  401c67:	bf 01 00 00 00       	mov    $0x1,%edi
  401c6c:	b8 00 00 00 00       	mov    $0x0,%eax
  401c71:	e8 aa f1 ff ff       	callq  400e20 <__printf_chk@plt>
  401c76:	bf 01 00 00 00       	mov    $0x1,%edi
  401c7b:	e8 f0 f1 ff ff       	callq  400e70 <exit@plt>

0000000000401c80 <Gets>:
  401c80:	41 54                	push   %r12
  401c82:	55                   	push   %rbp
  401c83:	53                   	push   %rbx
  401c84:	49 89 fc             	mov    %rdi,%r12
  401c87:	c7 05 b3 44 20 00 00 	movl   $0x0,0x2044b3(%rip)        # 606144 <gets_cnt>
  401c8e:	00 00 00 
  401c91:	48 89 fb             	mov    %rdi,%rbx
  401c94:	eb 11                	jmp    401ca7 <Gets+0x27>
  401c96:	48 8d 6b 01          	lea    0x1(%rbx),%rbp
  401c9a:	88 03                	mov    %al,(%rbx)
  401c9c:	0f b6 f8             	movzbl %al,%edi
  401c9f:	e8 3c ff ff ff       	callq  401be0 <save_char>
  401ca4:	48 89 eb             	mov    %rbp,%rbx
  401ca7:	48 8b 3d 62 38 20 00 	mov    0x203862(%rip),%rdi        # 605510 <infile>
  401cae:	e8 3d f1 ff ff       	callq  400df0 <_IO_getc@plt>
  401cb3:	83 f8 ff             	cmp    $0xffffffff,%eax
  401cb6:	74 05                	je     401cbd <Gets+0x3d>
  401cb8:	83 f8 0a             	cmp    $0xa,%eax
  401cbb:	75 d9                	jne    401c96 <Gets+0x16>
  401cbd:	c6 03 00             	movb   $0x0,(%rbx)
  401cc0:	b8 00 00 00 00       	mov    $0x0,%eax
  401cc5:	e8 6e ff ff ff       	callq  401c38 <save_term>
  401cca:	4c 89 e0             	mov    %r12,%rax
  401ccd:	5b                   	pop    %rbx
  401cce:	5d                   	pop    %rbp
  401ccf:	41 5c                	pop    %r12
  401cd1:	c3                   	retq   

0000000000401cd2 <notify_server>:
  401cd2:	53                   	push   %rbx
  401cd3:	48 81 ec 30 40 00 00 	sub    $0x4030,%rsp
  401cda:	64 48 8b 04 25 28 00 	mov    %fs:0x28,%rax
  401ce1:	00 00 
  401ce3:	48 89 84 24 28 40 00 	mov    %rax,0x4028(%rsp)
  401cea:	00 
  401ceb:	31 c0                	xor    %eax,%eax
  401ced:	83 3d 34 38 20 00 00 	cmpl   $0x0,0x203834(%rip)        # 605528 <is_checker>
  401cf4:	0f 85 bb 01 00 00    	jne    401eb5 <notify_server+0x1e3>
  401cfa:	89 fb                	mov    %edi,%ebx
  401cfc:	8b 05 42 44 20 00    	mov    0x204442(%rip),%eax        # 606144 <gets_cnt>
  401d02:	83 c0 64             	add    $0x64,%eax
  401d05:	3d 00 20 00 00       	cmp    $0x2000,%eax
  401d0a:	7e 1e                	jle    401d2a <notify_server+0x58>
  401d0c:	be 30 35 40 00       	mov    $0x403530,%esi
  401d11:	bf 01 00 00 00       	mov    $0x1,%edi
  401d16:	b8 00 00 00 00       	mov    $0x0,%eax
  401d1b:	e8 00 f1 ff ff       	callq  400e20 <__printf_chk@plt>
  401d20:	bf 01 00 00 00       	mov    $0x1,%edi
  401d25:	e8 46 f1 ff ff       	callq  400e70 <exit@plt>
  401d2a:	0f be 05 17 44 20 00 	movsbl 0x204417(%rip),%eax        # 606148 <target_prefix>
  401d31:	83 3d 70 37 20 00 00 	cmpl   $0x0,0x203770(%rip)        # 6054a8 <notify>
  401d38:	74 08                	je     401d42 <notify_server+0x70>
  401d3a:	8b 15 e0 37 20 00    	mov    0x2037e0(%rip),%edx        # 605520 <authkey>
  401d40:	eb 05                	jmp    401d47 <notify_server+0x75>
  401d42:	ba ff ff ff ff       	mov    $0xffffffff,%edx
  401d47:	85 db                	test   %ebx,%ebx
  401d49:	74 08                	je     401d53 <notify_server+0x81>
  401d4b:	41 b9 11 34 40 00    	mov    $0x403411,%r9d
  401d51:	eb 06                	jmp    401d59 <notify_server+0x87>
  401d53:	41 b9 16 34 40 00    	mov    $0x403416,%r9d
  401d59:	48 c7 44 24 18 40 55 	movq   $0x605540,0x18(%rsp)
  401d60:	60 00 
  401d62:	89 74 24 10          	mov    %esi,0x10(%rsp)
  401d66:	89 44 24 08          	mov    %eax,0x8(%rsp)
  401d6a:	89 14 24             	mov    %edx,(%rsp)
  401d6d:	44 8b 05 f4 33 20 00 	mov    0x2033f4(%rip),%r8d        # 605168 <target_id>
  401d74:	b9 1b 34 40 00       	mov    $0x40341b,%ecx
  401d79:	ba 00 20 00 00       	mov    $0x2000,%edx
  401d7e:	be 01 00 00 00       	mov    $0x1,%esi
  401d83:	48 8d 7c 24 20       	lea    0x20(%rsp),%rdi
  401d88:	b8 00 00 00 00       	mov    $0x0,%eax
  401d8d:	e8 0e f1 ff ff       	callq  400ea0 <__sprintf_chk@plt>
  401d92:	83 3d 0f 37 20 00 00 	cmpl   $0x0,0x20370f(%rip)        # 6054a8 <notify>
  401d99:	0f 84 86 00 00 00    	je     401e25 <notify_server+0x153>
  401d9f:	85 db                	test   %ebx,%ebx
  401da1:	74 70                	je     401e13 <notify_server+0x141>
  401da3:	4c 8d 8c 24 20 20 00 	lea    0x2020(%rsp),%r9
  401daa:	00 
  401dab:	41 b8 00 00 00 00    	mov    $0x0,%r8d
  401db1:	48 8d 4c 24 20       	lea    0x20(%rsp),%rcx
  401db6:	48 8b 15 b3 33 20 00 	mov    0x2033b3(%rip),%rdx        # 605170 <lab>
  401dbd:	48 8b 35 b4 33 20 00 	mov    0x2033b4(%rip),%rsi        # 605178 <course>
  401dc4:	48 8b 3d 95 33 20 00 	mov    0x203395(%rip),%rdi        # 605160 <user_id>
  401dcb:	e8 be 10 00 00       	callq  402e8e <driver_post>
  401dd0:	85 c0                	test   %eax,%eax
  401dd2:	79 26                	jns    401dfa <notify_server+0x128>
  401dd4:	48 8d 94 24 20 20 00 	lea    0x2020(%rsp),%rdx
  401ddb:	00 
  401ddc:	be 37 34 40 00       	mov    $0x403437,%esi
  401de1:	bf 01 00 00 00       	mov    $0x1,%edi
  401de6:	b8 00 00 00 00       	mov    $0x0,%eax
  401deb:	e8 30 f0 ff ff       	callq  400e20 <__printf_chk@plt>
  401df0:	bf 01 00 00 00       	mov    $0x1,%edi
  401df5:	e8 76 f0 ff ff       	callq  400e70 <exit@plt>
  401dfa:	bf 60 35 40 00       	mov    $0x403560,%edi
  401dff:	e8 dc ee ff ff       	callq  400ce0 <puts@plt>
  401e04:	bf 43 34 40 00       	mov    $0x403443,%edi
  401e09:	e8 d2 ee ff ff       	callq  400ce0 <puts@plt>
  401e0e:	e9 a2 00 00 00       	jmpq   401eb5 <notify_server+0x1e3>
  401e13:	bf 4d 34 40 00       	mov    $0x40344d,%edi
  401e18:	e8 c3 ee ff ff       	callq  400ce0 <puts@plt>
  401e1d:	0f 1f 00             	nopl   (%rax)
  401e20:	e9 90 00 00 00       	jmpq   401eb5 <notify_server+0x1e3>
  401e25:	85 db                	test   %ebx,%ebx
  401e27:	74 09                	je     401e32 <notify_server+0x160>
  401e29:	ba 11 34 40 00       	mov    $0x403411,%edx
  401e2e:	66 90                	xchg   %ax,%ax
  401e30:	eb 05                	jmp    401e37 <notify_server+0x165>
  401e32:	ba 16 34 40 00       	mov    $0x403416,%edx
  401e37:	be 98 35 40 00       	mov    $0x403598,%esi
  401e3c:	bf 01 00 00 00       	mov    $0x1,%edi
  401e41:	b8 00 00 00 00       	mov    $0x0,%eax
  401e46:	e8 d5 ef ff ff       	callq  400e20 <__printf_chk@plt>
  401e4b:	48 8b 15 0e 33 20 00 	mov    0x20330e(%rip),%rdx        # 605160 <user_id>
  401e52:	be 54 34 40 00       	mov    $0x403454,%esi
  401e57:	bf 01 00 00 00       	mov    $0x1,%edi
  401e5c:	b8 00 00 00 00       	mov    $0x0,%eax
  401e61:	e8 ba ef ff ff       	callq  400e20 <__printf_chk@plt>
  401e66:	48 8b 15 0b 33 20 00 	mov    0x20330b(%rip),%rdx        # 605178 <course>
  401e6d:	be 61 34 40 00       	mov    $0x403461,%esi
  401e72:	bf 01 00 00 00       	mov    $0x1,%edi
  401e77:	b8 00 00 00 00       	mov    $0x0,%eax
  401e7c:	e8 9f ef ff ff       	callq  400e20 <__printf_chk@plt>
  401e81:	48 8b 15 e8 32 20 00 	mov    0x2032e8(%rip),%rdx        # 605170 <lab>
  401e88:	be 6d 34 40 00       	mov    $0x40346d,%esi
  401e8d:	bf 01 00 00 00       	mov    $0x1,%edi
  401e92:	b8 00 00 00 00       	mov    $0x0,%eax
  401e97:	e8 84 ef ff ff       	callq  400e20 <__printf_chk@plt>
  401e9c:	48 8d 54 24 20       	lea    0x20(%rsp),%rdx
  401ea1:	be 76 34 40 00       	mov    $0x403476,%esi
  401ea6:	bf 01 00 00 00       	mov    $0x1,%edi
  401eab:	b8 00 00 00 00       	mov    $0x0,%eax
  401eb0:	e8 6b ef ff ff       	callq  400e20 <__printf_chk@plt>
  401eb5:	48 8b 84 24 28 40 00 	mov    0x4028(%rsp),%rax
  401ebc:	00 
  401ebd:	64 48 33 04 25 28 00 	xor    %fs:0x28,%rax
  401ec4:	00 00 
  401ec6:	74 05                	je     401ecd <notify_server+0x1fb>
  401ec8:	e8 33 ee ff ff       	callq  400d00 <__stack_chk_fail@plt>
  401ecd:	48 81 c4 30 40 00 00 	add    $0x4030,%rsp
  401ed4:	5b                   	pop    %rbx
  401ed5:	c3                   	retq   

0000000000401ed6 <validate>:
  401ed6:	53                   	push   %rbx
  401ed7:	89 fb                	mov    %edi,%ebx
  401ed9:	83 3d 48 36 20 00 00 	cmpl   $0x0,0x203648(%rip)        # 605528 <is_checker>
  401ee0:	74 6b                	je     401f4d <validate+0x77>
  401ee2:	39 3d 34 36 20 00    	cmp    %edi,0x203634(%rip)        # 60551c <vlevel>
  401ee8:	74 14                	je     401efe <validate+0x28>
  401eea:	bf 82 34 40 00       	mov    $0x403482,%edi
  401eef:	e8 ec ed ff ff       	callq  400ce0 <puts@plt>
  401ef4:	b8 00 00 00 00       	mov    $0x0,%eax
  401ef9:	e8 4d fd ff ff       	callq  401c4b <check_fail>
  401efe:	8b 15 14 36 20 00    	mov    0x203614(%rip),%edx        # 605518 <check_level>
  401f04:	39 fa                	cmp    %edi,%edx
  401f06:	74 20                	je     401f28 <validate+0x52>
  401f08:	89 f9                	mov    %edi,%ecx
  401f0a:	be c0 35 40 00       	mov    $0x4035c0,%esi
  401f0f:	bf 01 00 00 00       	mov    $0x1,%edi
  401f14:	b8 00 00 00 00       	mov    $0x0,%eax
  401f19:	e8 02 ef ff ff       	callq  400e20 <__printf_chk@plt>
  401f1e:	b8 00 00 00 00       	mov    $0x0,%eax
  401f23:	e8 23 fd ff ff       	callq  401c4b <check_fail>
  401f28:	0f be 15 19 42 20 00 	movsbl 0x204219(%rip),%edx        # 606148 <target_prefix>
  401f2f:	41 b8 40 55 60 00    	mov    $0x605540,%r8d
  401f35:	89 f9                	mov    %edi,%ecx
  401f37:	be a0 34 40 00       	mov    $0x4034a0,%esi
  401f3c:	bf 01 00 00 00       	mov    $0x1,%edi
  401f41:	b8 00 00 00 00       	mov    $0x0,%eax
  401f46:	e8 d5 ee ff ff       	callq  400e20 <__printf_chk@plt>
  401f4b:	eb 49                	jmp    401f96 <validate+0xc0>
  401f4d:	39 3d c9 35 20 00    	cmp    %edi,0x2035c9(%rip)        # 60551c <vlevel>
  401f53:	74 18                	je     401f6d <validate+0x97>
  401f55:	bf 82 34 40 00       	mov    $0x403482,%edi
  401f5a:	e8 81 ed ff ff       	callq  400ce0 <puts@plt>
  401f5f:	89 de                	mov    %ebx,%esi
  401f61:	bf 00 00 00 00       	mov    $0x0,%edi
  401f66:	e8 67 fd ff ff       	callq  401cd2 <notify_server>
  401f6b:	eb 29                	jmp    401f96 <validate+0xc0>
  401f6d:	0f be 0d d4 41 20 00 	movsbl 0x2041d4(%rip),%ecx        # 606148 <target_prefix>
  401f74:	89 fa                	mov    %edi,%edx
  401f76:	be e8 35 40 00       	mov    $0x4035e8,%esi
  401f7b:	bf 01 00 00 00       	mov    $0x1,%edi
  401f80:	b8 00 00 00 00       	mov    $0x0,%eax
  401f85:	e8 96 ee ff ff       	callq  400e20 <__printf_chk@plt>
  401f8a:	89 de                	mov    %ebx,%esi
  401f8c:	bf 01 00 00 00       	mov    $0x1,%edi
  401f91:	e8 3c fd ff ff       	callq  401cd2 <notify_server>
  401f96:	5b                   	pop    %rbx
  401f97:	c3                   	retq   

0000000000401f98 <fail>:
  401f98:	48 83 ec 08          	sub    $0x8,%rsp
  401f9c:	83 3d 85 35 20 00 00 	cmpl   $0x0,0x203585(%rip)        # 605528 <is_checker>
  401fa3:	74 0a                	je     401faf <fail+0x17>
  401fa5:	b8 00 00 00 00       	mov    $0x0,%eax
  401faa:	e8 9c fc ff ff       	callq  401c4b <check_fail>
  401faf:	89 fe                	mov    %edi,%esi
  401fb1:	bf 00 00 00 00       	mov    $0x0,%edi
  401fb6:	e8 17 fd ff ff       	callq  401cd2 <notify_server>
  401fbb:	48 83 c4 08          	add    $0x8,%rsp
  401fbf:	c3                   	retq   

0000000000401fc0 <bushandler>:
  401fc0:	48 83 ec 08          	sub    $0x8,%rsp
  401fc4:	83 3d 5d 35 20 00 00 	cmpl   $0x0,0x20355d(%rip)        # 605528 <is_checker>
  401fcb:	74 14                	je     401fe1 <bushandler+0x21>
  401fcd:	bf b5 34 40 00       	mov    $0x4034b5,%edi
  401fd2:	e8 09 ed ff ff       	callq  400ce0 <puts@plt>
  401fd7:	b8 00 00 00 00       	mov    $0x0,%eax
  401fdc:	e8 6a fc ff ff       	callq  401c4b <check_fail>
  401fe1:	bf 20 36 40 00       	mov    $0x403620,%edi
  401fe6:	e8 f5 ec ff ff       	callq  400ce0 <puts@plt>
  401feb:	bf bf 34 40 00       	mov    $0x4034bf,%edi
  401ff0:	e8 eb ec ff ff       	callq  400ce0 <puts@plt>
  401ff5:	be 00 00 00 00       	mov    $0x0,%esi
  401ffa:	bf 00 00 00 00       	mov    $0x0,%edi
  401fff:	e8 ce fc ff ff       	callq  401cd2 <notify_server>
  402004:	bf 01 00 00 00       	mov    $0x1,%edi
  402009:	e8 62 ee ff ff       	callq  400e70 <exit@plt>

000000000040200e <seghandler>:
  40200e:	48 83 ec 08          	sub    $0x8,%rsp
  402012:	83 3d 0f 35 20 00 00 	cmpl   $0x0,0x20350f(%rip)        # 605528 <is_checker>
  402019:	74 14                	je     40202f <seghandler+0x21>
  40201b:	bf d5 34 40 00       	mov    $0x4034d5,%edi
  402020:	e8 bb ec ff ff       	callq  400ce0 <puts@plt>
  402025:	b8 00 00 00 00       	mov    $0x0,%eax
  40202a:	e8 1c fc ff ff       	callq  401c4b <check_fail>
  40202f:	bf 40 36 40 00       	mov    $0x403640,%edi
  402034:	e8 a7 ec ff ff       	callq  400ce0 <puts@plt>
  402039:	bf bf 34 40 00       	mov    $0x4034bf,%edi
  40203e:	e8 9d ec ff ff       	callq  400ce0 <puts@plt>
  402043:	be 00 00 00 00       	mov    $0x0,%esi
  402048:	bf 00 00 00 00       	mov    $0x0,%edi
  40204d:	e8 80 fc ff ff       	callq  401cd2 <notify_server>
  402052:	bf 01 00 00 00       	mov    $0x1,%edi
  402057:	e8 14 ee ff ff       	callq  400e70 <exit@plt>

000000000040205c <illegalhandler>:
  40205c:	48 83 ec 08          	sub    $0x8,%rsp
  402060:	83 3d c1 34 20 00 00 	cmpl   $0x0,0x2034c1(%rip)        # 605528 <is_checker>
  402067:	74 14                	je     40207d <illegalhandler+0x21>
  402069:	bf e8 34 40 00       	mov    $0x4034e8,%edi
  40206e:	e8 6d ec ff ff       	callq  400ce0 <puts@plt>
  402073:	b8 00 00 00 00       	mov    $0x0,%eax
  402078:	e8 ce fb ff ff       	callq  401c4b <check_fail>
  40207d:	bf 68 36 40 00       	mov    $0x403668,%edi
  402082:	e8 59 ec ff ff       	callq  400ce0 <puts@plt>
  402087:	bf bf 34 40 00       	mov    $0x4034bf,%edi
  40208c:	e8 4f ec ff ff       	callq  400ce0 <puts@plt>
  402091:	be 00 00 00 00       	mov    $0x0,%esi
  402096:	bf 00 00 00 00       	mov    $0x0,%edi
  40209b:	e8 32 fc ff ff       	callq  401cd2 <notify_server>
  4020a0:	bf 01 00 00 00       	mov    $0x1,%edi
  4020a5:	e8 c6 ed ff ff       	callq  400e70 <exit@plt>

00000000004020aa <sigalrmhandler>:
  4020aa:	48 83 ec 08          	sub    $0x8,%rsp
  4020ae:	83 3d 73 34 20 00 00 	cmpl   $0x0,0x203473(%rip)        # 605528 <is_checker>
  4020b5:	74 14                	je     4020cb <sigalrmhandler+0x21>
  4020b7:	bf fc 34 40 00       	mov    $0x4034fc,%edi
  4020bc:	e8 1f ec ff ff       	callq  400ce0 <puts@plt>
  4020c1:	b8 00 00 00 00       	mov    $0x0,%eax
  4020c6:	e8 80 fb ff ff       	callq  401c4b <check_fail>
  4020cb:	ba 05 00 00 00       	mov    $0x5,%edx
  4020d0:	be 98 36 40 00       	mov    $0x403698,%esi
  4020d5:	bf 01 00 00 00       	mov    $0x1,%edi
  4020da:	b8 00 00 00 00       	mov    $0x0,%eax
  4020df:	e8 3c ed ff ff       	callq  400e20 <__printf_chk@plt>
  4020e4:	be 00 00 00 00       	mov    $0x0,%esi
  4020e9:	bf 00 00 00 00       	mov    $0x0,%edi
  4020ee:	e8 df fb ff ff       	callq  401cd2 <notify_server>
  4020f3:	bf 01 00 00 00       	mov    $0x1,%edi
  4020f8:	e8 73 ed ff ff       	callq  400e70 <exit@plt>

00000000004020fd <launch>:
  4020fd:	55                   	push   %rbp
  4020fe:	48 89 e5             	mov    %rsp,%rbp
  402101:	48 83 ec 10          	sub    $0x10,%rsp
  402105:	48 89 fa             	mov    %rdi,%rdx
  402108:	64 48 8b 04 25 28 00 	mov    %fs:0x28,%rax
  40210f:	00 00 
  402111:	48 89 45 f8          	mov    %rax,-0x8(%rbp)
  402115:	31 c0                	xor    %eax,%eax
  402117:	48 8d 47 1e          	lea    0x1e(%rdi),%rax
  40211b:	48 83 e0 f0          	and    $0xfffffffffffffff0,%rax
  40211f:	48 29 c4             	sub    %rax,%rsp
  402122:	48 8d 7c 24 0f       	lea    0xf(%rsp),%rdi
  402127:	48 83 e7 f0          	and    $0xfffffffffffffff0,%rdi
  40212b:	be f4 00 00 00       	mov    $0xf4,%esi
  402130:	e8 eb eb ff ff       	callq  400d20 <memset@plt>
  402135:	48 8b 05 84 33 20 00 	mov    0x203384(%rip),%rax        # 6054c0 <stdin@@GLIBC_2.2.5>
  40213c:	48 39 05 cd 33 20 00 	cmp    %rax,0x2033cd(%rip)        # 605510 <infile>
  402143:	75 14                	jne    402159 <launch+0x5c>
  402145:	be 04 35 40 00       	mov    $0x403504,%esi
  40214a:	bf 01 00 00 00       	mov    $0x1,%edi
  40214f:	b8 00 00 00 00       	mov    $0x0,%eax
  402154:	e8 c7 ec ff ff       	callq  400e20 <__printf_chk@plt>
  402159:	c7 05 b9 33 20 00 00 	movl   $0x0,0x2033b9(%rip)        # 60551c <vlevel>
  402160:	00 00 00 
  402163:	b8 00 00 00 00       	mov    $0x0,%eax
  402168:	e8 20 f9 ff ff       	callq  401a8d <test>
  40216d:	83 3d b4 33 20 00 00 	cmpl   $0x0,0x2033b4(%rip)        # 605528 <is_checker>
  402174:	74 14                	je     40218a <launch+0x8d>
  402176:	bf 11 35 40 00       	mov    $0x403511,%edi
  40217b:	e8 60 eb ff ff       	callq  400ce0 <puts@plt>
  402180:	b8 00 00 00 00       	mov    $0x0,%eax
  402185:	e8 c1 fa ff ff       	callq  401c4b <check_fail>
  40218a:	bf 1c 35 40 00       	mov    $0x40351c,%edi
  40218f:	e8 4c eb ff ff       	callq  400ce0 <puts@plt>
  402194:	48 8b 45 f8          	mov    -0x8(%rbp),%rax
  402198:	64 48 33 04 25 28 00 	xor    %fs:0x28,%rax
  40219f:	00 00 
  4021a1:	74 05                	je     4021a8 <launch+0xab>
  4021a3:	e8 58 eb ff ff       	callq  400d00 <__stack_chk_fail@plt>
  4021a8:	c9                   	leaveq 
  4021a9:	c3                   	retq   

00000000004021aa <stable_launch>:
  4021aa:	53                   	push   %rbx
  4021ab:	48 89 3d 56 33 20 00 	mov    %rdi,0x203356(%rip)        # 605508 <global_offset>
  4021b2:	41 b9 00 00 00 00    	mov    $0x0,%r9d
  4021b8:	41 b8 00 00 00 00    	mov    $0x0,%r8d
  4021be:	b9 32 01 00 00       	mov    $0x132,%ecx
  4021c3:	ba 07 00 00 00       	mov    $0x7,%edx
  4021c8:	be 00 00 10 00       	mov    $0x100000,%esi
  4021cd:	bf 00 60 58 55       	mov    $0x55586000,%edi
  4021d2:	e8 39 eb ff ff       	callq  400d10 <mmap@plt>
  4021d7:	48 89 c3             	mov    %rax,%rbx
  4021da:	48 3d 00 60 58 55    	cmp    $0x55586000,%rax
  4021e0:	74 37                	je     402219 <stable_launch+0x6f>
  4021e2:	be 00 00 10 00       	mov    $0x100000,%esi
  4021e7:	48 89 c7             	mov    %rax,%rdi
  4021ea:	e8 21 ec ff ff       	callq  400e10 <munmap@plt>
  4021ef:	b9 00 60 58 55       	mov    $0x55586000,%ecx
  4021f4:	ba d0 36 40 00       	mov    $0x4036d0,%edx
  4021f9:	be 01 00 00 00       	mov    $0x1,%esi
  4021fe:	48 8b 3d e3 32 20 00 	mov    0x2032e3(%rip),%rdi        # 6054e8 <stderr@@GLIBC_2.2.5>
  402205:	b8 00 00 00 00       	mov    $0x0,%eax
  40220a:	e8 81 ec ff ff       	callq  400e90 <__fprintf_chk@plt>
  40220f:	bf 01 00 00 00       	mov    $0x1,%edi
  402214:	e8 57 ec ff ff       	callq  400e70 <exit@plt>
  402219:	48 8d 90 f8 ff 0f 00 	lea    0xffff8(%rax),%rdx
  402220:	48 89 15 29 3f 20 00 	mov    %rdx,0x203f29(%rip)        # 606150 <stack_top>
  402227:	48 89 e0             	mov    %rsp,%rax
  40222a:	48 89 d4             	mov    %rdx,%rsp
  40222d:	48 89 c2             	mov    %rax,%rdx
  402230:	48 89 15 c9 32 20 00 	mov    %rdx,0x2032c9(%rip)        # 605500 <global_save_stack>
  402237:	48 8b 3d ca 32 20 00 	mov    0x2032ca(%rip),%rdi        # 605508 <global_offset>
  40223e:	e8 ba fe ff ff       	callq  4020fd <launch>
  402243:	48 8b 05 b6 32 20 00 	mov    0x2032b6(%rip),%rax        # 605500 <global_save_stack>
  40224a:	48 89 c4             	mov    %rax,%rsp
  40224d:	be 00 00 10 00       	mov    $0x100000,%esi
  402252:	48 89 df             	mov    %rbx,%rdi
  402255:	e8 b6 eb ff ff       	callq  400e10 <munmap@plt>
  40225a:	5b                   	pop    %rbx
  40225b:	c3                   	retq   
  40225c:	0f 1f 40 00          	nopl   0x0(%rax)

0000000000402260 <rio_readinitb>:
  402260:	89 37                	mov    %esi,(%rdi)
  402262:	c7 47 04 00 00 00 00 	movl   $0x0,0x4(%rdi)
  402269:	48 8d 47 10          	lea    0x10(%rdi),%rax
  40226d:	48 89 47 08          	mov    %rax,0x8(%rdi)
  402271:	c3                   	retq   

0000000000402272 <sigalrm_handler>:
  402272:	48 83 ec 08          	sub    $0x8,%rsp
  402276:	b9 00 00 00 00       	mov    $0x0,%ecx
  40227b:	ba 10 37 40 00       	mov    $0x403710,%edx
  402280:	be 01 00 00 00       	mov    $0x1,%esi
  402285:	48 8b 3d 5c 32 20 00 	mov    0x20325c(%rip),%rdi        # 6054e8 <stderr@@GLIBC_2.2.5>
  40228c:	b8 00 00 00 00       	mov    $0x0,%eax
  402291:	e8 fa eb ff ff       	callq  400e90 <__fprintf_chk@plt>
  402296:	bf 01 00 00 00       	mov    $0x1,%edi
  40229b:	e8 d0 eb ff ff       	callq  400e70 <exit@plt>

00000000004022a0 <rio_writen>:
  4022a0:	41 55                	push   %r13
  4022a2:	41 54                	push   %r12
  4022a4:	55                   	push   %rbp
  4022a5:	53                   	push   %rbx
  4022a6:	48 83 ec 08          	sub    $0x8,%rsp
  4022aa:	41 89 fc             	mov    %edi,%r12d
  4022ad:	48 89 f5             	mov    %rsi,%rbp
  4022b0:	49 89 d5             	mov    %rdx,%r13
  4022b3:	48 89 d3             	mov    %rdx,%rbx
  4022b6:	eb 28                	jmp    4022e0 <rio_writen+0x40>
  4022b8:	48 89 da             	mov    %rbx,%rdx
  4022bb:	48 89 ee             	mov    %rbp,%rsi
  4022be:	44 89 e7             	mov    %r12d,%edi
  4022c1:	e8 2a ea ff ff       	callq  400cf0 <write@plt>
  4022c6:	48 85 c0             	test   %rax,%rax
  4022c9:	7f 0f                	jg     4022da <rio_writen+0x3a>
  4022cb:	e8 d0 e9 ff ff       	callq  400ca0 <__errno_location@plt>
  4022d0:	83 38 04             	cmpl   $0x4,(%rax)
  4022d3:	75 15                	jne    4022ea <rio_writen+0x4a>
  4022d5:	b8 00 00 00 00       	mov    $0x0,%eax
  4022da:	48 29 c3             	sub    %rax,%rbx
  4022dd:	48 01 c5             	add    %rax,%rbp
  4022e0:	48 85 db             	test   %rbx,%rbx
  4022e3:	75 d3                	jne    4022b8 <rio_writen+0x18>
  4022e5:	4c 89 e8             	mov    %r13,%rax
  4022e8:	eb 07                	jmp    4022f1 <rio_writen+0x51>
  4022ea:	48 c7 c0 ff ff ff ff 	mov    $0xffffffffffffffff,%rax
  4022f1:	48 83 c4 08          	add    $0x8,%rsp
  4022f5:	5b                   	pop    %rbx
  4022f6:	5d                   	pop    %rbp
  4022f7:	41 5c                	pop    %r12
  4022f9:	41 5d                	pop    %r13
  4022fb:	c3                   	retq   

00000000004022fc <rio_read>:
  4022fc:	41 56                	push   %r14
  4022fe:	41 55                	push   %r13
  402300:	41 54                	push   %r12
  402302:	55                   	push   %rbp
  402303:	53                   	push   %rbx
  402304:	48 89 fb             	mov    %rdi,%rbx
  402307:	49 89 f6             	mov    %rsi,%r14
  40230a:	49 89 d5             	mov    %rdx,%r13
  40230d:	4c 8d 67 10          	lea    0x10(%rdi),%r12
  402311:	eb 2a                	jmp    40233d <rio_read+0x41>
  402313:	8b 3b                	mov    (%rbx),%edi
  402315:	ba 00 20 00 00       	mov    $0x2000,%edx
  40231a:	4c 89 e6             	mov    %r12,%rsi
  40231d:	e8 2e ea ff ff       	callq  400d50 <read@plt>
  402322:	89 43 04             	mov    %eax,0x4(%rbx)
  402325:	85 c0                	test   %eax,%eax
  402327:	79 0c                	jns    402335 <rio_read+0x39>
  402329:	e8 72 e9 ff ff       	callq  400ca0 <__errno_location@plt>
  40232e:	83 38 04             	cmpl   $0x4,(%rax)
  402331:	74 0a                	je     40233d <rio_read+0x41>
  402333:	eb 37                	jmp    40236c <rio_read+0x70>
  402335:	85 c0                	test   %eax,%eax
  402337:	74 3c                	je     402375 <rio_read+0x79>
  402339:	4c 89 63 08          	mov    %r12,0x8(%rbx)
  40233d:	8b 6b 04             	mov    0x4(%rbx),%ebp
  402340:	85 ed                	test   %ebp,%ebp
  402342:	7e cf                	jle    402313 <rio_read+0x17>
  402344:	89 e8                	mov    %ebp,%eax
  402346:	4c 39 e8             	cmp    %r13,%rax
  402349:	72 03                	jb     40234e <rio_read+0x52>
  40234b:	44 89 ed             	mov    %r13d,%ebp
  40234e:	4c 63 e5             	movslq %ebp,%r12
  402351:	48 8b 73 08          	mov    0x8(%rbx),%rsi
  402355:	4c 89 e2             	mov    %r12,%rdx
  402358:	4c 89 f7             	mov    %r14,%rdi
  40235b:	e8 60 ea ff ff       	callq  400dc0 <memcpy@plt>
  402360:	4c 01 63 08          	add    %r12,0x8(%rbx)
  402364:	29 6b 04             	sub    %ebp,0x4(%rbx)
  402367:	4c 89 e0             	mov    %r12,%rax
  40236a:	eb 0e                	jmp    40237a <rio_read+0x7e>
  40236c:	48 c7 c0 ff ff ff ff 	mov    $0xffffffffffffffff,%rax
  402373:	eb 05                	jmp    40237a <rio_read+0x7e>
  402375:	b8 00 00 00 00       	mov    $0x0,%eax
  40237a:	5b                   	pop    %rbx
  40237b:	5d                   	pop    %rbp
  40237c:	41 5c                	pop    %r12
  40237e:	41 5d                	pop    %r13
  402380:	41 5e                	pop    %r14
  402382:	c3                   	retq   

0000000000402383 <rio_readlineb>:
  402383:	41 55                	push   %r13
  402385:	41 54                	push   %r12
  402387:	55                   	push   %rbp
  402388:	53                   	push   %rbx
  402389:	48 83 ec 18          	sub    $0x18,%rsp
  40238d:	49 89 fd             	mov    %rdi,%r13
  402390:	48 89 f5             	mov    %rsi,%rbp
  402393:	49 89 d4             	mov    %rdx,%r12
  402396:	bb 01 00 00 00       	mov    $0x1,%ebx
  40239b:	eb 3e                	jmp    4023db <rio_readlineb+0x58>
  40239d:	ba 01 00 00 00       	mov    $0x1,%edx
  4023a2:	48 8d 74 24 0f       	lea    0xf(%rsp),%rsi
  4023a7:	4c 89 ef             	mov    %r13,%rdi
  4023aa:	e8 4d ff ff ff       	callq  4022fc <rio_read>
  4023af:	83 f8 01             	cmp    $0x1,%eax
  4023b2:	75 12                	jne    4023c6 <rio_readlineb+0x43>
  4023b4:	48 8d 55 01          	lea    0x1(%rbp),%rdx
  4023b8:	0f b6 44 24 0f       	movzbl 0xf(%rsp),%eax
  4023bd:	88 45 00             	mov    %al,0x0(%rbp)
  4023c0:	3c 0a                	cmp    $0xa,%al
  4023c2:	75 10                	jne    4023d4 <rio_readlineb+0x51>
  4023c4:	eb 1c                	jmp    4023e2 <rio_readlineb+0x5f>
  4023c6:	85 c0                	test   %eax,%eax
  4023c8:	75 24                	jne    4023ee <rio_readlineb+0x6b>
  4023ca:	48 83 fb 01          	cmp    $0x1,%rbx
  4023ce:	66 90                	xchg   %ax,%ax
  4023d0:	75 13                	jne    4023e5 <rio_readlineb+0x62>
  4023d2:	eb 23                	jmp    4023f7 <rio_readlineb+0x74>
  4023d4:	48 83 c3 01          	add    $0x1,%rbx
  4023d8:	48 89 d5             	mov    %rdx,%rbp
  4023db:	4c 39 e3             	cmp    %r12,%rbx
  4023de:	72 bd                	jb     40239d <rio_readlineb+0x1a>
  4023e0:	eb 03                	jmp    4023e5 <rio_readlineb+0x62>
  4023e2:	48 89 d5             	mov    %rdx,%rbp
  4023e5:	c6 45 00 00          	movb   $0x0,0x0(%rbp)
  4023e9:	48 89 d8             	mov    %rbx,%rax
  4023ec:	eb 0e                	jmp    4023fc <rio_readlineb+0x79>
  4023ee:	48 c7 c0 ff ff ff ff 	mov    $0xffffffffffffffff,%rax
  4023f5:	eb 05                	jmp    4023fc <rio_readlineb+0x79>
  4023f7:	b8 00 00 00 00       	mov    $0x0,%eax
  4023fc:	48 83 c4 18          	add    $0x18,%rsp
  402400:	5b                   	pop    %rbx
  402401:	5d                   	pop    %rbp
  402402:	41 5c                	pop    %r12
  402404:	41 5d                	pop    %r13
  402406:	c3                   	retq   

0000000000402407 <urlencode>:
  402407:	41 54                	push   %r12
  402409:	55                   	push   %rbp
  40240a:	53                   	push   %rbx
  40240b:	48 83 ec 10          	sub    $0x10,%rsp
  40240f:	48 89 fb             	mov    %rdi,%rbx
  402412:	48 89 f5             	mov    %rsi,%rbp
  402415:	64 48 8b 04 25 28 00 	mov    %fs:0x28,%rax
  40241c:	00 00 
  40241e:	48 89 44 24 08       	mov    %rax,0x8(%rsp)
  402423:	31 c0                	xor    %eax,%eax
  402425:	48 c7 c1 ff ff ff ff 	mov    $0xffffffffffffffff,%rcx
  40242c:	f2 ae                	repnz scas %es:(%rdi),%al
  40242e:	48 f7 d1             	not    %rcx
  402431:	8d 41 ff             	lea    -0x1(%rcx),%eax
  402434:	e9 aa 00 00 00       	jmpq   4024e3 <urlencode+0xdc>
  402439:	44 0f b6 03          	movzbl (%rbx),%r8d
  40243d:	41 80 f8 2a          	cmp    $0x2a,%r8b
  402441:	0f 94 c2             	sete   %dl
  402444:	41 80 f8 2d          	cmp    $0x2d,%r8b
  402448:	0f 94 c0             	sete   %al
  40244b:	08 c2                	or     %al,%dl
  40244d:	75 24                	jne    402473 <urlencode+0x6c>
  40244f:	41 80 f8 2e          	cmp    $0x2e,%r8b
  402453:	74 1e                	je     402473 <urlencode+0x6c>
  402455:	41 80 f8 5f          	cmp    $0x5f,%r8b
  402459:	74 18                	je     402473 <urlencode+0x6c>
  40245b:	41 8d 40 d0          	lea    -0x30(%r8),%eax
  40245f:	3c 09                	cmp    $0x9,%al
  402461:	76 10                	jbe    402473 <urlencode+0x6c>
  402463:	41 8d 40 bf          	lea    -0x41(%r8),%eax
  402467:	3c 19                	cmp    $0x19,%al
  402469:	76 08                	jbe    402473 <urlencode+0x6c>
  40246b:	41 8d 40 9f          	lea    -0x61(%r8),%eax
  40246f:	3c 19                	cmp    $0x19,%al
  402471:	77 0a                	ja     40247d <urlencode+0x76>
  402473:	44 88 45 00          	mov    %r8b,0x0(%rbp)
  402477:	48 8d 6d 01          	lea    0x1(%rbp),%rbp
  40247b:	eb 5f                	jmp    4024dc <urlencode+0xd5>
  40247d:	41 80 f8 20          	cmp    $0x20,%r8b
  402481:	75 0a                	jne    40248d <urlencode+0x86>
  402483:	c6 45 00 2b          	movb   $0x2b,0x0(%rbp)
  402487:	48 8d 6d 01          	lea    0x1(%rbp),%rbp
  40248b:	eb 4f                	jmp    4024dc <urlencode+0xd5>
  40248d:	41 8d 40 e0          	lea    -0x20(%r8),%eax
  402491:	3c 5f                	cmp    $0x5f,%al
  402493:	0f 96 c2             	setbe  %dl
  402496:	41 80 f8 09          	cmp    $0x9,%r8b
  40249a:	0f 94 c0             	sete   %al
  40249d:	08 c2                	or     %al,%dl
  40249f:	74 50                	je     4024f1 <urlencode+0xea>
  4024a1:	45 0f b6 c0          	movzbl %r8b,%r8d
  4024a5:	b9 a8 37 40 00       	mov    $0x4037a8,%ecx
  4024aa:	ba 08 00 00 00       	mov    $0x8,%edx
  4024af:	be 01 00 00 00       	mov    $0x1,%esi
  4024b4:	48 89 e7             	mov    %rsp,%rdi
  4024b7:	b8 00 00 00 00       	mov    $0x0,%eax
  4024bc:	e8 df e9 ff ff       	callq  400ea0 <__sprintf_chk@plt>
  4024c1:	0f b6 04 24          	movzbl (%rsp),%eax
  4024c5:	88 45 00             	mov    %al,0x0(%rbp)
  4024c8:	0f b6 44 24 01       	movzbl 0x1(%rsp),%eax
  4024cd:	88 45 01             	mov    %al,0x1(%rbp)
  4024d0:	0f b6 44 24 02       	movzbl 0x2(%rsp),%eax
  4024d5:	88 45 02             	mov    %al,0x2(%rbp)
  4024d8:	48 8d 6d 03          	lea    0x3(%rbp),%rbp
  4024dc:	48 83 c3 01          	add    $0x1,%rbx
  4024e0:	44 89 e0             	mov    %r12d,%eax
  4024e3:	44 8d 60 ff          	lea    -0x1(%rax),%r12d
  4024e7:	85 c0                	test   %eax,%eax
  4024e9:	0f 85 4a ff ff ff    	jne    402439 <urlencode+0x32>
  4024ef:	eb 05                	jmp    4024f6 <urlencode+0xef>
  4024f1:	b8 ff ff ff ff       	mov    $0xffffffff,%eax
  4024f6:	48 8b 74 24 08       	mov    0x8(%rsp),%rsi
  4024fb:	64 48 33 34 25 28 00 	xor    %fs:0x28,%rsi
  402502:	00 00 
  402504:	74 05                	je     40250b <urlencode+0x104>
  402506:	e8 f5 e7 ff ff       	callq  400d00 <__stack_chk_fail@plt>
  40250b:	48 83 c4 10          	add    $0x10,%rsp
  40250f:	5b                   	pop    %rbx
  402510:	5d                   	pop    %rbp
  402511:	41 5c                	pop    %r12
  402513:	c3                   	retq   

0000000000402514 <submitr>:
  402514:	41 57                	push   %r15
  402516:	41 56                	push   %r14
  402518:	41 55                	push   %r13
  40251a:	41 54                	push   %r12
  40251c:	55                   	push   %rbp
  40251d:	53                   	push   %rbx
  40251e:	48 81 ec 68 a0 00 00 	sub    $0xa068,%rsp
  402525:	49 89 fc             	mov    %rdi,%r12
  402528:	89 74 24 14          	mov    %esi,0x14(%rsp)
  40252c:	49 89 d7             	mov    %rdx,%r15
  40252f:	49 89 ce             	mov    %rcx,%r14
  402532:	4c 89 44 24 18       	mov    %r8,0x18(%rsp)
  402537:	4d 89 cd             	mov    %r9,%r13
  40253a:	48 8b 9c 24 a0 a0 00 	mov    0xa0a0(%rsp),%rbx
  402541:	00 
  402542:	64 48 8b 04 25 28 00 	mov    %fs:0x28,%rax
  402549:	00 00 
  40254b:	48 89 84 24 58 a0 00 	mov    %rax,0xa058(%rsp)
  402552:	00 
  402553:	31 c0                	xor    %eax,%eax
  402555:	c7 44 24 2c 00 00 00 	movl   $0x0,0x2c(%rsp)
  40255c:	00 
  40255d:	ba 00 00 00 00       	mov    $0x0,%edx
  402562:	be 01 00 00 00       	mov    $0x1,%esi
  402567:	bf 02 00 00 00       	mov    $0x2,%edi
  40256c:	e8 3f e9 ff ff       	callq  400eb0 <socket@plt>
  402571:	89 c5                	mov    %eax,%ebp
  402573:	85 c0                	test   %eax,%eax
  402575:	79 4e                	jns    4025c5 <submitr+0xb1>
  402577:	48 b8 45 72 72 6f 72 	movabs $0x43203a726f727245,%rax
  40257e:	3a 20 43 
  402581:	48 89 03             	mov    %rax,(%rbx)
  402584:	48 b8 6c 69 65 6e 74 	movabs $0x6e7520746e65696c,%rax
  40258b:	20 75 6e 
  40258e:	48 89 43 08          	mov    %rax,0x8(%rbx)
  402592:	48 b8 61 62 6c 65 20 	movabs $0x206f7420656c6261,%rax
  402599:	74 6f 20 
  40259c:	48 89 43 10          	mov    %rax,0x10(%rbx)
  4025a0:	48 b8 63 72 65 61 74 	movabs $0x7320657461657263,%rax
  4025a7:	65 20 73 
  4025aa:	48 89 43 18          	mov    %rax,0x18(%rbx)
  4025ae:	c7 43 20 6f 63 6b 65 	movl   $0x656b636f,0x20(%rbx)
  4025b5:	66 c7 43 24 74 00    	movw   $0x74,0x24(%rbx)
  4025bb:	b8 ff ff ff ff       	mov    $0xffffffff,%eax
  4025c0:	e9 84 06 00 00       	jmpq   402c49 <submitr+0x735>
  4025c5:	4c 89 e7             	mov    %r12,%rdi
  4025c8:	e8 b3 e7 ff ff       	callq  400d80 <gethostbyname@plt>
  4025cd:	48 85 c0             	test   %rax,%rax
  4025d0:	75 67                	jne    402639 <submitr+0x125>
  4025d2:	48 b8 45 72 72 6f 72 	movabs $0x44203a726f727245,%rax
  4025d9:	3a 20 44 
  4025dc:	48 89 03             	mov    %rax,(%rbx)
  4025df:	48 b8 4e 53 20 69 73 	movabs $0x6e7520736920534e,%rax
  4025e6:	20 75 6e 
  4025e9:	48 89 43 08          	mov    %rax,0x8(%rbx)
  4025ed:	48 b8 61 62 6c 65 20 	movabs $0x206f7420656c6261,%rax
  4025f4:	74 6f 20 
  4025f7:	48 89 43 10          	mov    %rax,0x10(%rbx)
  4025fb:	48 b8 72 65 73 6f 6c 	movabs $0x2065766c6f736572,%rax
  402602:	76 65 20 
  402605:	48 89 43 18          	mov    %rax,0x18(%rbx)
  402609:	48 b8 73 65 72 76 65 	movabs $0x6120726576726573,%rax
  402610:	72 20 61 
  402613:	48 89 43 20          	mov    %rax,0x20(%rbx)
  402617:	c7 43 28 64 64 72 65 	movl   $0x65726464,0x28(%rbx)
  40261e:	66 c7 43 2c 73 73    	movw   $0x7373,0x2c(%rbx)
  402624:	c6 43 2e 00          	movb   $0x0,0x2e(%rbx)
  402628:	89 ef                	mov    %ebp,%edi
  40262a:	e8 11 e7 ff ff       	callq  400d40 <close@plt>
  40262f:	b8 ff ff ff ff       	mov    $0xffffffff,%eax
  402634:	e9 10 06 00 00       	jmpq   402c49 <submitr+0x735>
  402639:	48 c7 44 24 30 00 00 	movq   $0x0,0x30(%rsp)
  402640:	00 00 
  402642:	48 c7 44 24 38 00 00 	movq   $0x0,0x38(%rsp)
  402649:	00 00 
  40264b:	66 c7 44 24 30 02 00 	movw   $0x2,0x30(%rsp)
  402652:	48 63 50 14          	movslq 0x14(%rax),%rdx
  402656:	48 8b 40 18          	mov    0x18(%rax),%rax
  40265a:	48 8b 30             	mov    (%rax),%rsi
  40265d:	48 8d 7c 24 34       	lea    0x34(%rsp),%rdi
  402662:	b9 0c 00 00 00       	mov    $0xc,%ecx
  402667:	e8 24 e7 ff ff       	callq  400d90 <__memmove_chk@plt>
  40266c:	0f b7 44 24 14       	movzwl 0x14(%rsp),%eax
  402671:	66 c1 c8 08          	ror    $0x8,%ax
  402675:	66 89 44 24 32       	mov    %ax,0x32(%rsp)
  40267a:	ba 10 00 00 00       	mov    $0x10,%edx
  40267f:	48 8d 74 24 30       	lea    0x30(%rsp),%rsi
  402684:	89 ef                	mov    %ebp,%edi
  402686:	e8 f5 e7 ff ff       	callq  400e80 <connect@plt>
  40268b:	85 c0                	test   %eax,%eax
  40268d:	79 59                	jns    4026e8 <submitr+0x1d4>
  40268f:	48 b8 45 72 72 6f 72 	movabs $0x55203a726f727245,%rax
  402696:	3a 20 55 
  402699:	48 89 03             	mov    %rax,(%rbx)
  40269c:	48 b8 6e 61 62 6c 65 	movabs $0x6f7420656c62616e,%rax
  4026a3:	20 74 6f 
  4026a6:	48 89 43 08          	mov    %rax,0x8(%rbx)
  4026aa:	48 b8 20 63 6f 6e 6e 	movabs $0x7463656e6e6f6320,%rax
  4026b1:	65 63 74 
  4026b4:	48 89 43 10          	mov    %rax,0x10(%rbx)
  4026b8:	48 b8 20 74 6f 20 74 	movabs $0x20656874206f7420,%rax
  4026bf:	68 65 20 
  4026c2:	48 89 43 18          	mov    %rax,0x18(%rbx)
  4026c6:	c7 43 20 73 65 72 76 	movl   $0x76726573,0x20(%rbx)
  4026cd:	66 c7 43 24 65 72    	movw   $0x7265,0x24(%rbx)
  4026d3:	c6 43 26 00          	movb   $0x0,0x26(%rbx)
  4026d7:	89 ef                	mov    %ebp,%edi
  4026d9:	e8 62 e6 ff ff       	callq  400d40 <close@plt>
  4026de:	b8 ff ff ff ff       	mov    $0xffffffff,%eax
  4026e3:	e9 61 05 00 00       	jmpq   402c49 <submitr+0x735>
  4026e8:	48 c7 c2 ff ff ff ff 	mov    $0xffffffffffffffff,%rdx
  4026ef:	4c 89 ef             	mov    %r13,%rdi
  4026f2:	b8 00 00 00 00       	mov    $0x0,%eax
  4026f7:	48 89 d1             	mov    %rdx,%rcx
  4026fa:	f2 ae                	repnz scas %es:(%rdi),%al
  4026fc:	48 f7 d1             	not    %rcx
  4026ff:	48 89 ce             	mov    %rcx,%rsi
  402702:	4c 89 ff             	mov    %r15,%rdi
  402705:	48 89 d1             	mov    %rdx,%rcx
  402708:	f2 ae                	repnz scas %es:(%rdi),%al
  40270a:	48 f7 d1             	not    %rcx
  40270d:	49 89 c8             	mov    %rcx,%r8
  402710:	4c 89 f7             	mov    %r14,%rdi
  402713:	48 89 d1             	mov    %rdx,%rcx
  402716:	f2 ae                	repnz scas %es:(%rdi),%al
  402718:	49 29 c8             	sub    %rcx,%r8
  40271b:	48 8b 7c 24 18       	mov    0x18(%rsp),%rdi
  402720:	48 89 d1             	mov    %rdx,%rcx
  402723:	f2 ae                	repnz scas %es:(%rdi),%al
  402725:	49 29 c8             	sub    %rcx,%r8
  402728:	48 8d 44 76 fd       	lea    -0x3(%rsi,%rsi,2),%rax
  40272d:	49 8d 44 00 7b       	lea    0x7b(%r8,%rax,1),%rax
  402732:	48 3d 00 20 00 00    	cmp    $0x2000,%rax
  402738:	76 72                	jbe    4027ac <submitr+0x298>
  40273a:	48 b8 45 72 72 6f 72 	movabs $0x52203a726f727245,%rax
  402741:	3a 20 52 
  402744:	48 89 03             	mov    %rax,(%rbx)
  402747:	48 b8 65 73 75 6c 74 	movabs $0x747320746c757365,%rax
  40274e:	20 73 74 
  402751:	48 89 43 08          	mov    %rax,0x8(%rbx)
  402755:	48 b8 72 69 6e 67 20 	movabs $0x6f6f7420676e6972,%rax
  40275c:	74 6f 6f 
  40275f:	48 89 43 10          	mov    %rax,0x10(%rbx)
  402763:	48 b8 20 6c 61 72 67 	movabs $0x202e656772616c20,%rax
  40276a:	65 2e 20 
  40276d:	48 89 43 18          	mov    %rax,0x18(%rbx)
  402771:	48 b8 49 6e 63 72 65 	movabs $0x6573616572636e49,%rax
  402778:	61 73 65 
  40277b:	48 89 43 20          	mov    %rax,0x20(%rbx)
  40277f:	48 b8 20 53 55 42 4d 	movabs $0x5254494d42555320,%rax
  402786:	49 54 52 
  402789:	48 89 43 28          	mov    %rax,0x28(%rbx)
  40278d:	48 b8 5f 4d 41 58 42 	movabs $0x46554258414d5f,%rax
  402794:	55 46 00 
  402797:	48 89 43 30          	mov    %rax,0x30(%rbx)
  40279b:	89 ef                	mov    %ebp,%edi
  40279d:	e8 9e e5 ff ff       	callq  400d40 <close@plt>
  4027a2:	b8 ff ff ff ff       	mov    $0xffffffff,%eax
  4027a7:	e9 9d 04 00 00       	jmpq   402c49 <submitr+0x735>
  4027ac:	48 8d b4 24 40 20 00 	lea    0x2040(%rsp),%rsi
  4027b3:	00 
  4027b4:	b9 00 04 00 00       	mov    $0x400,%ecx
  4027b9:	b8 00 00 00 00       	mov    $0x0,%eax
  4027be:	48 89 f7             	mov    %rsi,%rdi
  4027c1:	f3 48 ab             	rep stos %rax,%es:(%rdi)
  4027c4:	4c 89 ef             	mov    %r13,%rdi
  4027c7:	e8 3b fc ff ff       	callq  402407 <urlencode>
  4027cc:	85 c0                	test   %eax,%eax
  4027ce:	0f 89 8a 00 00 00    	jns    40285e <submitr+0x34a>
  4027d4:	48 b8 45 72 72 6f 72 	movabs $0x52203a726f727245,%rax
  4027db:	3a 20 52 
  4027de:	48 89 03             	mov    %rax,(%rbx)
  4027e1:	48 b8 65 73 75 6c 74 	movabs $0x747320746c757365,%rax
  4027e8:	20 73 74 
  4027eb:	48 89 43 08          	mov    %rax,0x8(%rbx)
  4027ef:	48 b8 72 69 6e 67 20 	movabs $0x6e6f6320676e6972,%rax
  4027f6:	63 6f 6e 
  4027f9:	48 89 43 10          	mov    %rax,0x10(%rbx)
  4027fd:	48 b8 74 61 69 6e 73 	movabs $0x6e6120736e696174,%rax
  402804:	20 61 6e 
  402807:	48 89 43 18          	mov    %rax,0x18(%rbx)
  40280b:	48 b8 20 69 6c 6c 65 	movabs $0x6c6167656c6c6920,%rax
  402812:	67 61 6c 
  402815:	48 89 43 20          	mov    %rax,0x20(%rbx)
  402819:	48 b8 20 6f 72 20 75 	movabs $0x72706e7520726f20,%rax
  402820:	6e 70 72 
  402823:	48 89 43 28          	mov    %rax,0x28(%rbx)
  402827:	48 b8 69 6e 74 61 62 	movabs $0x20656c6261746e69,%rax
  40282e:	6c 65 20 
  402831:	48 89 43 30          	mov    %rax,0x30(%rbx)
  402835:	48 b8 63 68 61 72 61 	movabs $0x6574636172616863,%rax
  40283c:	63 74 65 
  40283f:	48 89 43 38          	mov    %rax,0x38(%rbx)
  402843:	66 c7 43 40 72 2e    	movw   $0x2e72,0x40(%rbx)
  402849:	c6 43 42 00          	movb   $0x0,0x42(%rbx)
  40284d:	89 ef                	mov    %ebp,%edi
  40284f:	e8 ec e4 ff ff       	callq  400d40 <close@plt>
  402854:	b8 ff ff ff ff       	mov    $0xffffffff,%eax
  402859:	e9 eb 03 00 00       	jmpq   402c49 <submitr+0x735>
  40285e:	4c 89 64 24 08       	mov    %r12,0x8(%rsp)
  402863:	48 8d 84 24 40 20 00 	lea    0x2040(%rsp),%rax
  40286a:	00 
  40286b:	48 89 04 24          	mov    %rax,(%rsp)
  40286f:	4d 89 f9             	mov    %r15,%r9
  402872:	4d 89 f0             	mov    %r14,%r8
  402875:	b9 38 37 40 00       	mov    $0x403738,%ecx
  40287a:	ba 00 20 00 00       	mov    $0x2000,%edx
  40287f:	be 01 00 00 00       	mov    $0x1,%esi
  402884:	48 8d 7c 24 40       	lea    0x40(%rsp),%rdi
  402889:	b8 00 00 00 00       	mov    $0x0,%eax
  40288e:	e8 0d e6 ff ff       	callq  400ea0 <__sprintf_chk@plt>
  402893:	48 8d 7c 24 40       	lea    0x40(%rsp),%rdi
  402898:	b8 00 00 00 00       	mov    $0x0,%eax
  40289d:	48 c7 c1 ff ff ff ff 	mov    $0xffffffffffffffff,%rcx
  4028a4:	f2 ae                	repnz scas %es:(%rdi),%al
  4028a6:	48 f7 d1             	not    %rcx
  4028a9:	48 8d 51 ff          	lea    -0x1(%rcx),%rdx
  4028ad:	48 8d 74 24 40       	lea    0x40(%rsp),%rsi
  4028b2:	89 ef                	mov    %ebp,%edi
  4028b4:	e8 e7 f9 ff ff       	callq  4022a0 <rio_writen>
  4028b9:	48 85 c0             	test   %rax,%rax
  4028bc:	79 6e                	jns    40292c <submitr+0x418>
  4028be:	48 b8 45 72 72 6f 72 	movabs $0x43203a726f727245,%rax
  4028c5:	3a 20 43 
  4028c8:	48 89 03             	mov    %rax,(%rbx)
  4028cb:	48 b8 6c 69 65 6e 74 	movabs $0x6e7520746e65696c,%rax
  4028d2:	20 75 6e 
  4028d5:	48 89 43 08          	mov    %rax,0x8(%rbx)
  4028d9:	48 b8 61 62 6c 65 20 	movabs $0x206f7420656c6261,%rax
  4028e0:	74 6f 20 
  4028e3:	48 89 43 10          	mov    %rax,0x10(%rbx)
  4028e7:	48 b8 77 72 69 74 65 	movabs $0x6f74206574697277,%rax
  4028ee:	20 74 6f 
  4028f1:	48 89 43 18          	mov    %rax,0x18(%rbx)
  4028f5:	48 b8 20 74 68 65 20 	movabs $0x7365722065687420,%rax
  4028fc:	72 65 73 
  4028ff:	48 89 43 20          	mov    %rax,0x20(%rbx)
  402903:	48 b8 75 6c 74 20 73 	movabs $0x7672657320746c75,%rax
  40290a:	65 72 76 
  40290d:	48 89 43 28          	mov    %rax,0x28(%rbx)
  402911:	66 c7 43 30 65 72    	movw   $0x7265,0x30(%rbx)
  402917:	c6 43 32 00          	movb   $0x0,0x32(%rbx)
  40291b:	89 ef                	mov    %ebp,%edi
  40291d:	e8 1e e4 ff ff       	callq  400d40 <close@plt>
  402922:	b8 ff ff ff ff       	mov    $0xffffffff,%eax
  402927:	e9 1d 03 00 00       	jmpq   402c49 <submitr+0x735>
  40292c:	89 ee                	mov    %ebp,%esi
  40292e:	48 8d bc 24 40 80 00 	lea    0x8040(%rsp),%rdi
  402935:	00 
  402936:	e8 25 f9 ff ff       	callq  402260 <rio_readinitb>
  40293b:	ba 00 20 00 00       	mov    $0x2000,%edx
  402940:	48 8d 74 24 40       	lea    0x40(%rsp),%rsi
  402945:	48 8d bc 24 40 80 00 	lea    0x8040(%rsp),%rdi
  40294c:	00 
  40294d:	e8 31 fa ff ff       	callq  402383 <rio_readlineb>
  402952:	48 85 c0             	test   %rax,%rax
  402955:	7f 7d                	jg     4029d4 <submitr+0x4c0>
  402957:	48 b8 45 72 72 6f 72 	movabs $0x43203a726f727245,%rax
  40295e:	3a 20 43 
  402961:	48 89 03             	mov    %rax,(%rbx)
  402964:	48 b8 6c 69 65 6e 74 	movabs $0x6e7520746e65696c,%rax
  40296b:	20 75 6e 
  40296e:	48 89 43 08          	mov    %rax,0x8(%rbx)
  402972:	48 b8 61 62 6c 65 20 	movabs $0x206f7420656c6261,%rax
  402979:	74 6f 20 
  40297c:	48 89 43 10          	mov    %rax,0x10(%rbx)
  402980:	48 b8 72 65 61 64 20 	movabs $0x7269662064616572,%rax
  402987:	66 69 72 
  40298a:	48 89 43 18          	mov    %rax,0x18(%rbx)
  40298e:	48 b8 73 74 20 68 65 	movabs $0x6564616568207473,%rax
  402995:	61 64 65 
  402998:	48 89 43 20          	mov    %rax,0x20(%rbx)
  40299c:	48 b8 72 20 66 72 6f 	movabs $0x72206d6f72662072,%rax
  4029a3:	6d 20 72 
  4029a6:	48 89 43 28          	mov    %rax,0x28(%rbx)
  4029aa:	48 b8 65 73 75 6c 74 	movabs $0x657320746c757365,%rax
  4029b1:	20 73 65 
  4029b4:	48 89 43 30          	mov    %rax,0x30(%rbx)
  4029b8:	c7 43 38 72 76 65 72 	movl   $0x72657672,0x38(%rbx)
  4029bf:	c6 43 3c 00          	movb   $0x0,0x3c(%rbx)
  4029c3:	89 ef                	mov    %ebp,%edi
  4029c5:	e8 76 e3 ff ff       	callq  400d40 <close@plt>
  4029ca:	b8 ff ff ff ff       	mov    $0xffffffff,%eax
  4029cf:	e9 75 02 00 00       	jmpq   402c49 <submitr+0x735>
  4029d4:	4c 8d 84 24 40 60 00 	lea    0x6040(%rsp),%r8
  4029db:	00 
  4029dc:	48 8d 4c 24 2c       	lea    0x2c(%rsp),%rcx
  4029e1:	48 8d 94 24 40 40 00 	lea    0x4040(%rsp),%rdx
  4029e8:	00 
  4029e9:	be af 37 40 00       	mov    $0x4037af,%esi
  4029ee:	48 8d 7c 24 40       	lea    0x40(%rsp),%rdi
  4029f3:	b8 00 00 00 00       	mov    $0x0,%eax
  4029f8:	e8 03 e4 ff ff       	callq  400e00 <__isoc99_sscanf@plt>
  4029fd:	41 bc 0d 00 00 00    	mov    $0xd,%r12d
  402a03:	41 bd 0a 00 00 00    	mov    $0xa,%r13d
  402a09:	e9 95 00 00 00       	jmpq   402aa3 <submitr+0x58f>
  402a0e:	ba 00 20 00 00       	mov    $0x2000,%edx
  402a13:	48 8d 74 24 40       	lea    0x40(%rsp),%rsi
  402a18:	48 8d bc 24 40 80 00 	lea    0x8040(%rsp),%rdi
  402a1f:	00 
  402a20:	e8 5e f9 ff ff       	callq  402383 <rio_readlineb>
  402a25:	48 85 c0             	test   %rax,%rax
  402a28:	7f 79                	jg     402aa3 <submitr+0x58f>
  402a2a:	48 b8 45 72 72 6f 72 	movabs $0x43203a726f727245,%rax
  402a31:	3a 20 43 
  402a34:	48 89 03             	mov    %rax,(%rbx)
  402a37:	48 b8 6c 69 65 6e 74 	movabs $0x6e7520746e65696c,%rax
  402a3e:	20 75 6e 
  402a41:	48 89 43 08          	mov    %rax,0x8(%rbx)
  402a45:	48 b8 61 62 6c 65 20 	movabs $0x206f7420656c6261,%rax
  402a4c:	74 6f 20 
  402a4f:	48 89 43 10          	mov    %rax,0x10(%rbx)
  402a53:	48 b8 72 65 61 64 20 	movabs $0x6165682064616572,%rax
  402a5a:	68 65 61 
  402a5d:	48 89 43 18          	mov    %rax,0x18(%rbx)
  402a61:	48 b8 64 65 72 73 20 	movabs $0x6f72662073726564,%rax
  402a68:	66 72 6f 
  402a6b:	48 89 43 20          	mov    %rax,0x20(%rbx)
  402a6f:	48 b8 6d 20 74 68 65 	movabs $0x657220656874206d,%rax
  402a76:	20 72 65 
  402a79:	48 89 43 28          	mov    %rax,0x28(%rbx)
  402a7d:	48 b8 73 75 6c 74 20 	movabs $0x72657320746c7573,%rax
  402a84:	73 65 72 
  402a87:	48 89 43 30          	mov    %rax,0x30(%rbx)
  402a8b:	c7 43 38 76 65 72 00 	movl   $0x726576,0x38(%rbx)
  402a92:	89 ef                	mov    %ebp,%edi
  402a94:	e8 a7 e2 ff ff       	callq  400d40 <close@plt>
  402a99:	b8 ff ff ff ff       	mov    $0xffffffff,%eax
  402a9e:	e9 a6 01 00 00       	jmpq   402c49 <submitr+0x735>
  402aa3:	0f b6 44 24 40       	movzbl 0x40(%rsp),%eax
  402aa8:	44 89 e6             	mov    %r12d,%esi
  402aab:	29 c6                	sub    %eax,%esi
  402aad:	89 f0                	mov    %esi,%eax
  402aaf:	75 15                	jne    402ac6 <submitr+0x5b2>
  402ab1:	0f b6 44 24 41       	movzbl 0x41(%rsp),%eax
  402ab6:	44 89 ea             	mov    %r13d,%edx
  402ab9:	29 c2                	sub    %eax,%edx
  402abb:	89 d0                	mov    %edx,%eax
  402abd:	75 07                	jne    402ac6 <submitr+0x5b2>
  402abf:	0f b6 44 24 42       	movzbl 0x42(%rsp),%eax
  402ac4:	f7 d8                	neg    %eax
  402ac6:	85 c0                	test   %eax,%eax
  402ac8:	0f 85 40 ff ff ff    	jne    402a0e <submitr+0x4fa>
  402ace:	ba 00 20 00 00       	mov    $0x2000,%edx
  402ad3:	48 8d 74 24 40       	lea    0x40(%rsp),%rsi
  402ad8:	48 8d bc 24 40 80 00 	lea    0x8040(%rsp),%rdi
  402adf:	00 
  402ae0:	e8 9e f8 ff ff       	callq  402383 <rio_readlineb>
  402ae5:	48 85 c0             	test   %rax,%rax
  402ae8:	0f 8f 83 00 00 00    	jg     402b71 <submitr+0x65d>
  402aee:	48 b8 45 72 72 6f 72 	movabs $0x43203a726f727245,%rax
  402af5:	3a 20 43 
  402af8:	48 89 03             	mov    %rax,(%rbx)
  402afb:	48 b8 6c 69 65 6e 74 	movabs $0x6e7520746e65696c,%rax
  402b02:	20 75 6e 
  402b05:	48 89 43 08          	mov    %rax,0x8(%rbx)
  402b09:	48 b8 61 62 6c 65 20 	movabs $0x206f7420656c6261,%rax
  402b10:	74 6f 20 
  402b13:	48 89 43 10          	mov    %rax,0x10(%rbx)
  402b17:	48 b8 72 65 61 64 20 	movabs $0x6174732064616572,%rax
  402b1e:	73 74 61 
  402b21:	48 89 43 18          	mov    %rax,0x18(%rbx)
  402b25:	48 b8 74 75 73 20 6d 	movabs $0x7373656d20737574,%rax
  402b2c:	65 73 73 
  402b2f:	48 89 43 20          	mov    %rax,0x20(%rbx)
  402b33:	48 b8 61 67 65 20 66 	movabs $0x6d6f726620656761,%rax
  402b3a:	72 6f 6d 
  402b3d:	48 89 43 28          	mov    %rax,0x28(%rbx)
  402b41:	48 b8 20 72 65 73 75 	movabs $0x20746c7573657220,%rax
  402b48:	6c 74 20 
  402b4b:	48 89 43 30          	mov    %rax,0x30(%rbx)
  402b4f:	c7 43 38 73 65 72 76 	movl   $0x76726573,0x38(%rbx)
  402b56:	66 c7 43 3c 65 72    	movw   $0x7265,0x3c(%rbx)
  402b5c:	c6 43 3e 00          	movb   $0x0,0x3e(%rbx)
  402b60:	89 ef                	mov    %ebp,%edi
  402b62:	e8 d9 e1 ff ff       	callq  400d40 <close@plt>
  402b67:	b8 ff ff ff ff       	mov    $0xffffffff,%eax
  402b6c:	e9 d8 00 00 00       	jmpq   402c49 <submitr+0x735>
  402b71:	44 8b 44 24 2c       	mov    0x2c(%rsp),%r8d
  402b76:	41 81 f8 c8 00 00 00 	cmp    $0xc8,%r8d
  402b7d:	74 37                	je     402bb6 <submitr+0x6a2>
  402b7f:	4c 8d 8c 24 40 60 00 	lea    0x6040(%rsp),%r9
  402b86:	00 
  402b87:	b9 78 37 40 00       	mov    $0x403778,%ecx
  402b8c:	48 c7 c2 ff ff ff ff 	mov    $0xffffffffffffffff,%rdx
  402b93:	be 01 00 00 00       	mov    $0x1,%esi
  402b98:	48 89 df             	mov    %rbx,%rdi
  402b9b:	b8 00 00 00 00       	mov    $0x0,%eax
  402ba0:	e8 fb e2 ff ff       	callq  400ea0 <__sprintf_chk@plt>
  402ba5:	89 ef                	mov    %ebp,%edi
  402ba7:	e8 94 e1 ff ff       	callq  400d40 <close@plt>
  402bac:	b8 ff ff ff ff       	mov    $0xffffffff,%eax
  402bb1:	e9 93 00 00 00       	jmpq   402c49 <submitr+0x735>
  402bb6:	48 8d 74 24 40       	lea    0x40(%rsp),%rsi
  402bbb:	48 89 df             	mov    %rbx,%rdi
  402bbe:	e8 0d e1 ff ff       	callq  400cd0 <strcpy@plt>
  402bc3:	89 ef                	mov    %ebp,%edi
  402bc5:	e8 76 e1 ff ff       	callq  400d40 <close@plt>
  402bca:	0f b6 03             	movzbl (%rbx),%eax
  402bcd:	ba 4f 00 00 00       	mov    $0x4f,%edx
  402bd2:	29 c2                	sub    %eax,%edx
  402bd4:	75 22                	jne    402bf8 <submitr+0x6e4>
  402bd6:	0f b6 4b 01          	movzbl 0x1(%rbx),%ecx
  402bda:	b8 4b 00 00 00       	mov    $0x4b,%eax
  402bdf:	29 c8                	sub    %ecx,%eax
  402be1:	75 17                	jne    402bfa <submitr+0x6e6>
  402be3:	0f b6 4b 02          	movzbl 0x2(%rbx),%ecx
  402be7:	b8 0a 00 00 00       	mov    $0xa,%eax
  402bec:	29 c8                	sub    %ecx,%eax
  402bee:	75 0a                	jne    402bfa <submitr+0x6e6>
  402bf0:	0f b6 43 03          	movzbl 0x3(%rbx),%eax
  402bf4:	f7 d8                	neg    %eax
  402bf6:	eb 02                	jmp    402bfa <submitr+0x6e6>
  402bf8:	89 d0                	mov    %edx,%eax
  402bfa:	85 c0                	test   %eax,%eax
  402bfc:	74 38                	je     402c36 <submitr+0x722>
  402bfe:	bf c0 37 40 00       	mov    $0x4037c0,%edi
  402c03:	b9 05 00 00 00       	mov    $0x5,%ecx
  402c08:	48 89 de             	mov    %rbx,%rsi
  402c0b:	f3 a6                	repz cmpsb %es:(%rdi),%ds:(%rsi)
  402c0d:	0f 97 c1             	seta   %cl
  402c10:	0f 92 c0             	setb   %al
  402c13:	38 c1                	cmp    %al,%cl
  402c15:	74 26                	je     402c3d <submitr+0x729>
  402c17:	85 d2                	test   %edx,%edx
  402c19:	75 10                	jne    402c2b <submitr+0x717>
  402c1b:	0f b6 43 01          	movzbl 0x1(%rbx),%eax
  402c1f:	b2 4b                	mov    $0x4b,%dl
  402c21:	29 c2                	sub    %eax,%edx
  402c23:	75 06                	jne    402c2b <submitr+0x717>
  402c25:	0f b6 53 02          	movzbl 0x2(%rbx),%edx
  402c29:	f7 da                	neg    %edx
  402c2b:	85 d2                	test   %edx,%edx
  402c2d:	75 15                	jne    402c44 <submitr+0x730>
  402c2f:	b8 00 00 00 00       	mov    $0x0,%eax
  402c34:	eb 13                	jmp    402c49 <submitr+0x735>
  402c36:	b8 00 00 00 00       	mov    $0x0,%eax
  402c3b:	eb 0c                	jmp    402c49 <submitr+0x735>
  402c3d:	b8 00 00 00 00       	mov    $0x0,%eax
  402c42:	eb 05                	jmp    402c49 <submitr+0x735>
  402c44:	b8 ff ff ff ff       	mov    $0xffffffff,%eax
  402c49:	48 8b 9c 24 58 a0 00 	mov    0xa058(%rsp),%rbx
  402c50:	00 
  402c51:	64 48 33 1c 25 28 00 	xor    %fs:0x28,%rbx
  402c58:	00 00 
  402c5a:	74 05                	je     402c61 <submitr+0x74d>
  402c5c:	e8 9f e0 ff ff       	callq  400d00 <__stack_chk_fail@plt>
  402c61:	48 81 c4 68 a0 00 00 	add    $0xa068,%rsp
  402c68:	5b                   	pop    %rbx
  402c69:	5d                   	pop    %rbp
  402c6a:	41 5c                	pop    %r12
  402c6c:	41 5d                	pop    %r13
  402c6e:	41 5e                	pop    %r14
  402c70:	41 5f                	pop    %r15
  402c72:	c3                   	retq   

0000000000402c73 <init_timeout>:
  402c73:	53                   	push   %rbx
  402c74:	89 fb                	mov    %edi,%ebx
  402c76:	85 ff                	test   %edi,%edi
  402c78:	74 1f                	je     402c99 <init_timeout+0x26>
  402c7a:	85 ff                	test   %edi,%edi
  402c7c:	79 05                	jns    402c83 <init_timeout+0x10>
  402c7e:	bb 00 00 00 00       	mov    $0x0,%ebx
  402c83:	be 72 22 40 00       	mov    $0x402272,%esi
  402c88:	bf 0e 00 00 00       	mov    $0xe,%edi
  402c8d:	e8 de e0 ff ff       	callq  400d70 <signal@plt>
  402c92:	89 df                	mov    %ebx,%edi
  402c94:	e8 97 e0 ff ff       	callq  400d30 <alarm@plt>
  402c99:	5b                   	pop    %rbx
  402c9a:	c3                   	retq   

0000000000402c9b <init_driver>:
  402c9b:	55                   	push   %rbp
  402c9c:	53                   	push   %rbx
  402c9d:	48 83 ec 28          	sub    $0x28,%rsp
  402ca1:	48 89 fd             	mov    %rdi,%rbp
  402ca4:	64 48 8b 04 25 28 00 	mov    %fs:0x28,%rax
  402cab:	00 00 
  402cad:	48 89 44 24 18       	mov    %rax,0x18(%rsp)
  402cb2:	31 c0                	xor    %eax,%eax
  402cb4:	be 01 00 00 00       	mov    $0x1,%esi
  402cb9:	bf 0d 00 00 00       	mov    $0xd,%edi
  402cbe:	e8 ad e0 ff ff       	callq  400d70 <signal@plt>
  402cc3:	be 01 00 00 00       	mov    $0x1,%esi
  402cc8:	bf 1d 00 00 00       	mov    $0x1d,%edi
  402ccd:	e8 9e e0 ff ff       	callq  400d70 <signal@plt>
  402cd2:	be 01 00 00 00       	mov    $0x1,%esi
  402cd7:	bf 1d 00 00 00       	mov    $0x1d,%edi
  402cdc:	e8 8f e0 ff ff       	callq  400d70 <signal@plt>
  402ce1:	ba 00 00 00 00       	mov    $0x0,%edx
  402ce6:	be 01 00 00 00       	mov    $0x1,%esi
  402ceb:	bf 02 00 00 00       	mov    $0x2,%edi
  402cf0:	e8 bb e1 ff ff       	callq  400eb0 <socket@plt>
  402cf5:	89 c3                	mov    %eax,%ebx
  402cf7:	85 c0                	test   %eax,%eax
  402cf9:	79 4f                	jns    402d4a <init_driver+0xaf>
  402cfb:	48 b8 45 72 72 6f 72 	movabs $0x43203a726f727245,%rax
  402d02:	3a 20 43 
  402d05:	48 89 45 00          	mov    %rax,0x0(%rbp)
  402d09:	48 b8 6c 69 65 6e 74 	movabs $0x6e7520746e65696c,%rax
  402d10:	20 75 6e 
  402d13:	48 89 45 08          	mov    %rax,0x8(%rbp)
  402d17:	48 b8 61 62 6c 65 20 	movabs $0x206f7420656c6261,%rax
  402d1e:	74 6f 20 
  402d21:	48 89 45 10          	mov    %rax,0x10(%rbp)
  402d25:	48 b8 63 72 65 61 74 	movabs $0x7320657461657263,%rax
  402d2c:	65 20 73 
  402d2f:	48 89 45 18          	mov    %rax,0x18(%rbp)
  402d33:	c7 45 20 6f 63 6b 65 	movl   $0x656b636f,0x20(%rbp)
  402d3a:	66 c7 45 24 74 00    	movw   $0x74,0x24(%rbp)
  402d40:	b8 ff ff ff ff       	mov    $0xffffffff,%eax
  402d45:	e9 28 01 00 00       	jmpq   402e72 <init_driver+0x1d7>
  402d4a:	bf ff 32 40 00       	mov    $0x4032ff,%edi
  402d4f:	e8 2c e0 ff ff       	callq  400d80 <gethostbyname@plt>
  402d54:	48 85 c0             	test   %rax,%rax
  402d57:	75 68                	jne    402dc1 <init_driver+0x126>
  402d59:	48 b8 45 72 72 6f 72 	movabs $0x44203a726f727245,%rax
  402d60:	3a 20 44 
  402d63:	48 89 45 00          	mov    %rax,0x0(%rbp)
  402d67:	48 b8 4e 53 20 69 73 	movabs $0x6e7520736920534e,%rax
  402d6e:	20 75 6e 
  402d71:	48 89 45 08          	mov    %rax,0x8(%rbp)
  402d75:	48 b8 61 62 6c 65 20 	movabs $0x206f7420656c6261,%rax
  402d7c:	74 6f 20 
  402d7f:	48 89 45 10          	mov    %rax,0x10(%rbp)
  402d83:	48 b8 72 65 73 6f 6c 	movabs $0x2065766c6f736572,%rax
  402d8a:	76 65 20 
  402d8d:	48 89 45 18          	mov    %rax,0x18(%rbp)
  402d91:	48 b8 73 65 72 76 65 	movabs $0x6120726576726573,%rax
  402d98:	72 20 61 
  402d9b:	48 89 45 20          	mov    %rax,0x20(%rbp)
  402d9f:	c7 45 28 64 64 72 65 	movl   $0x65726464,0x28(%rbp)
  402da6:	66 c7 45 2c 73 73    	movw   $0x7373,0x2c(%rbp)
  402dac:	c6 45 2e 00          	movb   $0x0,0x2e(%rbp)
  402db0:	89 df                	mov    %ebx,%edi
  402db2:	e8 89 df ff ff       	callq  400d40 <close@plt>
  402db7:	b8 ff ff ff ff       	mov    $0xffffffff,%eax
  402dbc:	e9 b1 00 00 00       	jmpq   402e72 <init_driver+0x1d7>
  402dc1:	48 c7 04 24 00 00 00 	movq   $0x0,(%rsp)
  402dc8:	00 
  402dc9:	48 c7 44 24 08 00 00 	movq   $0x0,0x8(%rsp)
  402dd0:	00 00 
  402dd2:	66 c7 04 24 02 00    	movw   $0x2,(%rsp)
  402dd8:	48 63 50 14          	movslq 0x14(%rax),%rdx
  402ddc:	48 8b 40 18          	mov    0x18(%rax),%rax
  402de0:	48 8b 30             	mov    (%rax),%rsi
  402de3:	48 8d 7c 24 04       	lea    0x4(%rsp),%rdi
  402de8:	b9 0c 00 00 00       	mov    $0xc,%ecx
  402ded:	e8 9e df ff ff       	callq  400d90 <__memmove_chk@plt>
  402df2:	66 c7 44 24 02 4e f3 	movw   $0xf34e,0x2(%rsp)
  402df9:	ba 10 00 00 00       	mov    $0x10,%edx
  402dfe:	48 89 e6             	mov    %rsp,%rsi
  402e01:	89 df                	mov    %ebx,%edi
  402e03:	e8 78 e0 ff ff       	callq  400e80 <connect@plt>
  402e08:	85 c0                	test   %eax,%eax
  402e0a:	79 50                	jns    402e5c <init_driver+0x1c1>
  402e0c:	48 b8 45 72 72 6f 72 	movabs $0x55203a726f727245,%rax
  402e13:	3a 20 55 
  402e16:	48 89 45 00          	mov    %rax,0x0(%rbp)
  402e1a:	48 b8 6e 61 62 6c 65 	movabs $0x6f7420656c62616e,%rax
  402e21:	20 74 6f 
  402e24:	48 89 45 08          	mov    %rax,0x8(%rbp)
  402e28:	48 b8 20 63 6f 6e 6e 	movabs $0x7463656e6e6f6320,%rax
  402e2f:	65 63 74 
  402e32:	48 89 45 10          	mov    %rax,0x10(%rbp)
  402e36:	48 b8 20 74 6f 20 73 	movabs $0x76726573206f7420,%rax
  402e3d:	65 72 76 
  402e40:	48 89 45 18          	mov    %rax,0x18(%rbp)
  402e44:	66 c7 45 20 65 72    	movw   $0x7265,0x20(%rbp)
  402e4a:	c6 45 22 00          	movb   $0x0,0x22(%rbp)
  402e4e:	89 df                	mov    %ebx,%edi
  402e50:	e8 eb de ff ff       	callq  400d40 <close@plt>
  402e55:	b8 ff ff ff ff       	mov    $0xffffffff,%eax
  402e5a:	eb 16                	jmp    402e72 <init_driver+0x1d7>
  402e5c:	89 df                	mov    %ebx,%edi
  402e5e:	e8 dd de ff ff       	callq  400d40 <close@plt>
  402e63:	66 c7 45 00 4f 4b    	movw   $0x4b4f,0x0(%rbp)
  402e69:	c6 45 02 00          	movb   $0x0,0x2(%rbp)
  402e6d:	b8 00 00 00 00       	mov    $0x0,%eax
  402e72:	48 8b 4c 24 18       	mov    0x18(%rsp),%rcx
  402e77:	64 48 33 0c 25 28 00 	xor    %fs:0x28,%rcx
  402e7e:	00 00 
  402e80:	74 05                	je     402e87 <init_driver+0x1ec>
  402e82:	e8 79 de ff ff       	callq  400d00 <__stack_chk_fail@plt>
  402e87:	48 83 c4 28          	add    $0x28,%rsp
  402e8b:	5b                   	pop    %rbx
  402e8c:	5d                   	pop    %rbp
  402e8d:	c3                   	retq   

0000000000402e8e <driver_post>:
  402e8e:	53                   	push   %rbx
  402e8f:	48 83 ec 10          	sub    $0x10,%rsp
  402e93:	4c 89 cb             	mov    %r9,%rbx
  402e96:	45 85 c0             	test   %r8d,%r8d
  402e99:	74 27                	je     402ec2 <driver_post+0x34>
  402e9b:	48 89 ca             	mov    %rcx,%rdx
  402e9e:	be c5 37 40 00       	mov    $0x4037c5,%esi
  402ea3:	bf 01 00 00 00       	mov    $0x1,%edi
  402ea8:	b8 00 00 00 00       	mov    $0x0,%eax
  402ead:	e8 6e df ff ff       	callq  400e20 <__printf_chk@plt>
  402eb2:	66 c7 03 4f 4b       	movw   $0x4b4f,(%rbx)
  402eb7:	c6 43 02 00          	movb   $0x0,0x2(%rbx)
  402ebb:	b8 00 00 00 00       	mov    $0x0,%eax
  402ec0:	eb 39                	jmp    402efb <driver_post+0x6d>
  402ec2:	48 85 ff             	test   %rdi,%rdi
  402ec5:	74 26                	je     402eed <driver_post+0x5f>
  402ec7:	80 3f 00             	cmpb   $0x0,(%rdi)
  402eca:	74 21                	je     402eed <driver_post+0x5f>
  402ecc:	4c 89 0c 24          	mov    %r9,(%rsp)
  402ed0:	49 89 c9             	mov    %rcx,%r9
  402ed3:	49 89 d0             	mov    %rdx,%r8
  402ed6:	48 89 f9             	mov    %rdi,%rcx
  402ed9:	48 89 f2             	mov    %rsi,%rdx
  402edc:	be f3 4e 00 00       	mov    $0x4ef3,%esi
  402ee1:	bf ff 32 40 00       	mov    $0x4032ff,%edi
  402ee6:	e8 29 f6 ff ff       	callq  402514 <submitr>
  402eeb:	eb 0e                	jmp    402efb <driver_post+0x6d>
  402eed:	66 c7 03 4f 4b       	movw   $0x4b4f,(%rbx)
  402ef2:	c6 43 02 00          	movb   $0x0,0x2(%rbx)
  402ef6:	b8 00 00 00 00       	mov    $0x0,%eax
  402efb:	48 83 c4 10          	add    $0x10,%rsp
  402eff:	5b                   	pop    %rbx
  402f00:	c3                   	retq   

0000000000402f01 <check>:
  402f01:	89 f8                	mov    %edi,%eax
  402f03:	c1 e8 1c             	shr    $0x1c,%eax
  402f06:	85 c0                	test   %eax,%eax
  402f08:	74 1d                	je     402f27 <check+0x26>
  402f0a:	b9 00 00 00 00       	mov    $0x0,%ecx
  402f0f:	eb 0b                	jmp    402f1c <check+0x1b>
  402f11:	89 f8                	mov    %edi,%eax
  402f13:	d3 e8                	shr    %cl,%eax
  402f15:	3c 0a                	cmp    $0xa,%al
  402f17:	74 14                	je     402f2d <check+0x2c>
  402f19:	83 c1 08             	add    $0x8,%ecx
  402f1c:	83 f9 1f             	cmp    $0x1f,%ecx
  402f1f:	7e f0                	jle    402f11 <check+0x10>
  402f21:	b8 01 00 00 00       	mov    $0x1,%eax
  402f26:	c3                   	retq   
  402f27:	b8 00 00 00 00       	mov    $0x0,%eax
  402f2c:	c3                   	retq   
  402f2d:	b8 00 00 00 00       	mov    $0x0,%eax
  402f32:	c3                   	retq   

0000000000402f33 <gencookie>:
  402f33:	53                   	push   %rbx
  402f34:	83 c7 01             	add    $0x1,%edi
  402f37:	e8 74 dd ff ff       	callq  400cb0 <srandom@plt>
  402f3c:	e8 9f de ff ff       	callq  400de0 <random@plt>
  402f41:	89 c3                	mov    %eax,%ebx
  402f43:	89 c7                	mov    %eax,%edi
  402f45:	e8 b7 ff ff ff       	callq  402f01 <check>
  402f4a:	85 c0                	test   %eax,%eax
  402f4c:	74 ee                	je     402f3c <gencookie+0x9>
  402f4e:	89 d8                	mov    %ebx,%eax
  402f50:	5b                   	pop    %rbx
  402f51:	c3                   	retq   
  402f52:	66 2e 0f 1f 84 00 00 	nopw   %cs:0x0(%rax,%rax,1)
  402f59:	00 00 00 
  402f5c:	0f 1f 40 00          	nopl   0x0(%rax)

0000000000402f60 <__libc_csu_init>:
  402f60:	41 57                	push   %r15
  402f62:	41 89 ff             	mov    %edi,%r15d
  402f65:	41 56                	push   %r14
  402f67:	49 89 f6             	mov    %rsi,%r14
  402f6a:	41 55                	push   %r13
  402f6c:	49 89 d5             	mov    %rdx,%r13
  402f6f:	41 54                	push   %r12
  402f71:	4c 8d 25 98 1e 20 00 	lea    0x201e98(%rip),%r12        # 604e10 <__frame_dummy_init_array_entry>
  402f78:	55                   	push   %rbp
  402f79:	48 8d 2d 98 1e 20 00 	lea    0x201e98(%rip),%rbp        # 604e18 <__init_array_end>
  402f80:	53                   	push   %rbx
  402f81:	4c 29 e5             	sub    %r12,%rbp
  402f84:	31 db                	xor    %ebx,%ebx
  402f86:	48 c1 fd 03          	sar    $0x3,%rbp
  402f8a:	48 83 ec 08          	sub    $0x8,%rsp
  402f8e:	e8 cd dc ff ff       	callq  400c60 <_init>
  402f93:	48 85 ed             	test   %rbp,%rbp
  402f96:	74 1e                	je     402fb6 <__libc_csu_init+0x56>
  402f98:	0f 1f 84 00 00 00 00 	nopl   0x0(%rax,%rax,1)
  402f9f:	00 
  402fa0:	4c 89 ea             	mov    %r13,%rdx
  402fa3:	4c 89 f6             	mov    %r14,%rsi
  402fa6:	44 89 ff             	mov    %r15d,%edi
  402fa9:	41 ff 14 dc          	callq  *(%r12,%rbx,8)
  402fad:	48 83 c3 01          	add    $0x1,%rbx
  402fb1:	48 39 eb             	cmp    %rbp,%rbx
  402fb4:	75 ea                	jne    402fa0 <__libc_csu_init+0x40>
  402fb6:	48 83 c4 08          	add    $0x8,%rsp
  402fba:	5b                   	pop    %rbx
  402fbb:	5d                   	pop    %rbp
  402fbc:	41 5c                	pop    %r12
  402fbe:	41 5d                	pop    %r13
  402fc0:	41 5e                	pop    %r14
  402fc2:	41 5f                	pop    %r15
  402fc4:	c3                   	retq   
  402fc5:	66 66 2e 0f 1f 84 00 	data16 nopw %cs:0x0(%rax,%rax,1)
  402fcc:	00 00 00 00 

0000000000402fd0 <__libc_csu_fini>:
  402fd0:	f3 c3                	repz retq 

Disassembly of section .fini:

0000000000402fd4 <_fini>:
  402fd4:	48 83 ec 08          	sub    $0x8,%rsp
  402fd8:	48 83 c4 08          	add    $0x8,%rsp
  402fdc:	c3                   	retq   
